///////////////////////////////////////////////////////////////////////////////
//                                                                            /
// IAR C/C++ Compiler V8.10.1.40194/W32 for 8051        08/Jan/2015  12:19:55 /
// Copyright 2004-2011 IAR Systems AB.                                        /
//                                                                            /
//    Core               =  plain                                             /
//    Code model         =  banked                                            /
//    Data model         =  large                                             /
//    Calling convention =  xdata reentrant                                   /
//    Constant location  =  data_rom                                          /
//    Dptr setup         =  1,16                                              /
//    Source file        =  C:\Users\JAL\Desktop\ZStack-CC2530-2.5.1a\Compone /
//                          nts\hal\target\CC2530EB\hal_lcd.c                 /
//    Command line       =  -f C:\Users\JAL\Desktop\ZStack-CC2530-2.5.1a\Proj /
//                          ects\zstack\Samples\GenericApp\CC2530DB\..\..\..\ /
//                          Tools\CC2530DB\f8wRouter.cfg (-DCPU32MHZ          /
//                          -DROOT=__near_func -DMAC_CFG_APP_PENDING_QUEUE=TR /
//                          UE -DMAC_CFG_TX_DATA_MAX=5 -DMAC_CFG_TX_MAX=8     /
//                          -DMAC_CFG_RX_MAX=5 -DRTR_NWK) -f                  /
//                          C:\Users\JAL\Desktop\ZStack-CC2530-2.5.1a\Project /
//                          s\zstack\Samples\GenericApp\CC2530DB\..\..\..\Too /
//                          ls\CC2530DB\f8wConfig.cfg (-DZIGBEEPRO            /
//                          -DSECURE=0 -DZG_SECURE_DYNAMIC=0 -DREFLECTOR      /
//                          -DDEFAULT_CHANLIST=0x00000800                     /
//                          -DZDAPP_CONFIG_PAN_ID=0xFFFF                      /
//                          -DNWK_START_DELAY=100 -DEXTENDED_JOINING_RANDOM_M /
//                          ASK=0x007F -DBEACON_REQUEST_DELAY=100             /
//                          -DBEACON_REQ_DELAY_MASK=0x00FF                    /
//                          -DLINK_STATUS_JITTER_MASK=0x007F                  /
//                          -DROUTE_EXPIRY_TIME=30 -DAPSC_ACK_WAIT_DURATION_P /
//                          OLLED=3000 -DNWK_INDIRECT_MSG_TIMEOUT=7           /
//                          -DMAX_RREQ_ENTRIES=8 -DAPSC_MAX_FRAME_RETRIES=3   /
//                          -DNWK_MAX_DATA_RETRIES=2                          /
//                          -DMAX_POLL_FAILURE_RETRIES=2 -DMAX_BCAST=9        /
//                          -DAPS_MAX_GROUPS=16 -DMAX_RTG_ENTRIES=40          /
//                          -DNWK_MAX_BINDING_ENTRIES=4                       /
//                          -DMAX_BINDING_CLUSTER_IDS=4                       /
//                          "-DDEFAULT_KEY={0x01, 0x03, 0x05, 0x07, 0x09,     /
//                          0x0B, 0x0D, 0x0F, 0x00, 0x02, 0x04, 0x06, 0x08,   /
//                          0x0A, 0x0C, 0x0D}" -DMAC_MAX_FRAME_SIZE=116       /
//                          -DZDNWKMGR_MIN_TRANSMISSIONS=20 "-DCONST=const    /
//                          __code" -DGENERIC=__generic                       /
//                          -DRFD_RCVC_ALWAYS_ON=FALSE -DPOLL_RATE=1000       /
//                          -DQUEUED_POLL_RATE=100 -DRESPONSE_POLL_RATE=100)  /
//                          -DREJOIN_POLL_RATE=440 C:\Users\JAL\Desktop\ZStac /
//                          k-CC2530-2.5.1a\Components\hal\target\CC2530EB\ha /
//                          l_lcd.c -D ZTOOL_P1 -D MT_TASK -D MT_SYS_FUNC -D  /
//                          MT_ZDO_FUNC -D LCD_SUPPORTED=DEBUG -lC            /
//                          C:\Users\JAL\Desktop\ZStack-CC2530-2.5.1a\Project /
//                          s\zstack\Samples\GenericApp\CC2530DB\RouterEB\Lis /
//                          t\ -lA C:\Users\JAL\Desktop\ZStack-CC2530-2.5.1a\ /
//                          Projects\zstack\Samples\GenericApp\CC2530DB\Route /
//                          rEB\List\ --diag_suppress Pe001,Pa010 -o          /
//                          C:\Users\JAL\Desktop\ZStack-CC2530-2.5.1a\Project /
//                          s\zstack\Samples\GenericApp\CC2530DB\RouterEB\Obj /
//                          \ -e --no_code_motion --debug --core=plain        /
//                          --dptr=16,1 --data_model=large                    /
//                          --code_model=banked --calling_convention=xdata_re /
//                          entrant --place_constants=data_rom                /
//                          --nr_virtual_regs 16 -I                           /
//                          C:\Users\JAL\Desktop\ZStack-CC2530-2.5.1a\Project /
//                          s\zstack\Samples\GenericApp\CC2530DB\ -I          /
//                          C:\Users\JAL\Desktop\ZStack-CC2530-2.5.1a\Project /
//                          s\zstack\Samples\GenericApp\CC2530DB\..\Source\   /
//                          -I C:\Users\JAL\Desktop\ZStack-CC2530-2.5.1a\Proj /
//                          ects\zstack\Samples\GenericApp\CC2530DB\..\..\..\ /
//                          ZMain\TI2530DB\ -I C:\Users\JAL\Desktop\ZStack-CC /
//                          2530-2.5.1a\Projects\zstack\Samples\GenericApp\CC /
//                          2530DB\..\..\..\..\..\Components\hal\include\ -I  /
//                          C:\Users\JAL\Desktop\ZStack-CC2530-2.5.1a\Project /
//                          s\zstack\Samples\GenericApp\CC2530DB\..\..\..\..\ /
//                          ..\Components\hal\target\CC2530EB\ -I             /
//                          C:\Users\JAL\Desktop\ZStack-CC2530-2.5.1a\Project /
//                          s\zstack\Samples\GenericApp\CC2530DB\..\..\..\..\ /
//                          ..\Components\mac\include\ -I                     /
//                          C:\Users\JAL\Desktop\ZStack-CC2530-2.5.1a\Project /
//                          s\zstack\Samples\GenericApp\CC2530DB\..\..\..\..\ /
//                          ..\Components\mac\high_level\ -I                  /
//                          C:\Users\JAL\Desktop\ZStack-CC2530-2.5.1a\Project /
//                          s\zstack\Samples\GenericApp\CC2530DB\..\..\..\..\ /
//                          ..\Components\mac\low_level\srf04\ -I             /
//                          C:\Users\JAL\Desktop\ZStack-CC2530-2.5.1a\Project /
//                          s\zstack\Samples\GenericApp\CC2530DB\..\..\..\..\ /
//                          ..\Components\mac\low_level\srf04\single_chip\    /
//                          -I C:\Users\JAL\Desktop\ZStack-CC2530-2.5.1a\Proj /
//                          ects\zstack\Samples\GenericApp\CC2530DB\..\..\..\ /
//                          ..\..\Components\mt\ -I                           /
//                          C:\Users\JAL\Desktop\ZStack-CC2530-2.5.1a\Project /
//                          s\zstack\Samples\GenericApp\CC2530DB\..\..\..\..\ /
//                          ..\Components\osal\include\ -I                    /
//                          C:\Users\JAL\Desktop\ZStack-CC2530-2.5.1a\Project /
//                          s\zstack\Samples\GenericApp\CC2530DB\..\..\..\..\ /
//                          ..\Components\services\saddr\ -I                  /
//                          C:\Users\JAL\Desktop\ZStack-CC2530-2.5.1a\Project /
//                          s\zstack\Samples\GenericApp\CC2530DB\..\..\..\..\ /
//                          ..\Components\services\sdata\ -I                  /
//                          C:\Users\JAL\Desktop\ZStack-CC2530-2.5.1a\Project /
//                          s\zstack\Samples\GenericApp\CC2530DB\..\..\..\..\ /
//                          ..\Components\stack\af\ -I                        /
//                          C:\Users\JAL\Desktop\ZStack-CC2530-2.5.1a\Project /
//                          s\zstack\Samples\GenericApp\CC2530DB\..\..\..\..\ /
//                          ..\Components\stack\nwk\ -I                       /
//                          C:\Users\JAL\Desktop\ZStack-CC2530-2.5.1a\Project /
//                          s\zstack\Samples\GenericApp\CC2530DB\..\..\..\..\ /
//                          ..\Components\stack\sapi\ -I                      /
//                          C:\Users\JAL\Desktop\ZStack-CC2530-2.5.1a\Project /
//                          s\zstack\Samples\GenericApp\CC2530DB\..\..\..\..\ /
//                          ..\Components\stack\sec\ -I                       /
//                          C:\Users\JAL\Desktop\ZStack-CC2530-2.5.1a\Project /
//                          s\zstack\Samples\GenericApp\CC2530DB\..\..\..\..\ /
//                          ..\Components\stack\sys\ -I                       /
//                          C:\Users\JAL\Desktop\ZStack-CC2530-2.5.1a\Project /
//                          s\zstack\Samples\GenericApp\CC2530DB\..\..\..\..\ /
//                          ..\Components\stack\zdo\ -I                       /
//                          C:\Users\JAL\Desktop\ZStack-CC2530-2.5.1a\Project /
//                          s\zstack\Samples\GenericApp\CC2530DB\..\..\..\..\ /
//                          ..\Components\zmac\ -I C:\Users\JAL\Desktop\ZStac /
//                          k-CC2530-2.5.1a\Projects\zstack\Samples\GenericAp /
//                          p\CC2530DB\..\..\..\..\..\Components\zmac\f8w\    /
//                          -Ohz --require_prototypes                         /
//    List file          =  C:\Users\JAL\Desktop\ZStack-CC2530-2.5.1a\Project /
//                          s\zstack\Samples\GenericApp\CC2530DB\RouterEB\Lis /
//                          t\hal_lcd.s51                                     /
//                                                                            /
//                                                                            /
///////////////////////////////////////////////////////////////////////////////

        NAME hal_lcd

        RTMODEL "__SystemLibrary", "CLib"
        RTMODEL "__calling_convention", "xdata_reentrant"
        RTMODEL "__code_model", "banked"
        RTMODEL "__core", "plain"
        RTMODEL "__data_model", "large"
        RTMODEL "__dptr_size", "16"
        RTMODEL "__extended_stack", "disabled"
        RTMODEL "__location_for_constants", "data"
        RTMODEL "__number_of_dptrs", "1"
        RTMODEL "__rt_version", "1"

        RSEG DOVERLAY:DATA:NOROOT(0)
        RSEG IOVERLAY:IDATA:NOROOT(0)
        RSEG ISTACK:IDATA:NOROOT(0)
        RSEG PSTACK:XDATA:NOROOT(0)
        RSEG XSTACK:XDATA:NOROOT(0)

        EXTERN ?ALLOC_XSTACK8
        EXTERN ?BANKED_ENTER_XDATA
        EXTERN ?BANKED_LEAVE_XDATA
        EXTERN ?BDISPATCH
        EXTERN ?BRET
        EXTERN ?DEALLOC_XSTACK8
        EXTERN ?PUSH_XSTACK_I_THREE
        EXTERN ?PUSH_XSTACK_I_TWO
        EXTERN ?V0
        EXTERN ?XSP
        EXTERN ?XSTACK_DISP0_8
        EXTERN __INIT_XDATA_Z

        PUBLIC ??DisplayByte_5x7?relay
        FUNCTION ??DisplayByte_5x7?relay,0203H
        PUBLIC ??HalLcdDisplayPercentBar?relay
        FUNCTION ??HalLcdDisplayPercentBar?relay,0203H
        PUBLIC ??HalLcdInit?relay
        FUNCTION ??HalLcdInit?relay,0203H
        PUBLIC ??HalLcdWriteScreen?relay
        FUNCTION ??HalLcdWriteScreen?relay,0203H
        PUBLIC ??HalLcdWriteString?relay
        FUNCTION ??HalLcdWriteString?relay,0203H
        PUBLIC ??HalLcdWriteStringValue?relay
        FUNCTION ??HalLcdWriteStringValue?relay,0203H
        PUBLIC ??HalLcdWriteStringValueValue?relay
        FUNCTION ??HalLcdWriteStringValueValue?relay,0203H
        PUBLIC ??HalLcdWriteValue?relay
        FUNCTION ??HalLcdWriteValue?relay,0203H
        PUBLIC ??HalLcd_HW_Clear?relay
        FUNCTION ??HalLcd_HW_Clear?relay,0203H
        PUBLIC ??HalLcd_HW_Control?relay
        FUNCTION ??HalLcd_HW_Control?relay,0203H
        PUBLIC ??HalLcd_HW_Init?relay
        FUNCTION ??HalLcd_HW_Init?relay,0203H
        PUBLIC ??HalLcd_HW_WaitUs?relay
        FUNCTION ??HalLcd_HW_WaitUs?relay,0203H
        PUBLIC ??HalLcd_HW_Write?relay
        FUNCTION ??HalLcd_HW_Write?relay,0203H
        PUBLIC ??HalLcd_HW_WriteChar?relay
        FUNCTION ??HalLcd_HW_WriteChar?relay,0203H
        PUBLIC ??HalLcd_HW_WriteLine?relay
        FUNCTION ??HalLcd_HW_WriteLine?relay,0203H
        PUBLIC ??set_ddram_line_col?relay
        FUNCTION ??set_ddram_line_col?relay,0203H
        PUBLIC DisplayByte_5x7
        FUNCTION DisplayByte_5x7,021203H
        ARGFRAME XSTACK, 9, STACK
        ARGFRAME IOVERLAY, 0, STATIC
        ARGFRAME DOVERLAY, 0, STATIC
        LOCFRAME XSTACK, 13, STACK
        PUBLIC HalLcdDisplayPercentBar
        FUNCTION HalLcdDisplayPercentBar,021203H
        ARGFRAME XSTACK, 0, STACK
        LOCFRAME XSTACK, 32, STACK
        PUBLIC HalLcdInit
        FUNCTION HalLcdInit,021203H
        ARGFRAME XSTACK, 0, STACK
        LOCFRAME ISTACK, 2, STACK
        PUBLIC HalLcdWriteScreen
        FUNCTION HalLcdWriteScreen,021203H
        ARGFRAME XSTACK, 0, STACK
        LOCFRAME XSTACK, 9, STACK
        PUBLIC HalLcdWriteString
        FUNCTION HalLcdWriteString,021203H
        ARGFRAME XSTACK, 44, STACK
        ARGFRAME IOVERLAY, 0, STATIC
        ARGFRAME DOVERLAY, 0, STATIC
        LOCFRAME XSTACK, 20, STACK
        PUBLIC HalLcdWriteStringValue
        FUNCTION HalLcdWriteStringValue,021203H
        ARGFRAME XSTACK, 1, STACK
        LOCFRAME XSTACK, 46, STACK
        PUBLIC HalLcdWriteStringValueValue
        FUNCTION HalLcdWriteStringValueValue,021203H
        ARGFRAME XSTACK, 4, STACK
        LOCFRAME XSTACK, 47, STACK
        PUBLIC HalLcdWriteValue
        FUNCTION HalLcdWriteValue,021203H
        ARGFRAME XSTACK, 1, STACK
        LOCFRAME XSTACK, 43, STACK
        PUBLIC HalLcd_HW_Clear
        FUNCTION HalLcd_HW_Clear,021203H
        ARGFRAME XSTACK, 0, STACK
        ARGFRAME IOVERLAY, 0, STATIC
        ARGFRAME DOVERLAY, 0, STATIC
        LOCFRAME XSTACK, 9, STACK
        PUBLIC HalLcd_HW_Control
        FUNCTION HalLcd_HW_Control,021203H
        ARGFRAME XSTACK, 9, STACK
        ARGFRAME IOVERLAY, 0, STATIC
        ARGFRAME DOVERLAY, 0, STATIC
        LOCFRAME XSTACK, 9, STACK
        PUBLIC HalLcd_HW_Init
        FUNCTION HalLcd_HW_Init,021203H
        ARGFRAME XSTACK, 0, STACK
        ARGFRAME IOVERLAY, 0, STATIC
        ARGFRAME DOVERLAY, 0, STATIC
        LOCFRAME ISTACK, 2, STACK
        PUBLIC HalLcd_HW_WaitUs
        FUNCTION HalLcd_HW_WaitUs,080203H
        ARGFRAME XSTACK, 9, STACK
        ARGFRAME IOVERLAY, 0, STATIC
        ARGFRAME DOVERLAY, 0, STATIC
        PUBLIC HalLcd_HW_Write
        FUNCTION HalLcd_HW_Write,0203H
        ARGFRAME XSTACK, 13, STACK
        ARGFRAME IOVERLAY, 0, STATIC
        ARGFRAME DOVERLAY, 0, STATIC
        PUBLIC HalLcd_HW_WriteChar
        FUNCTION HalLcd_HW_WriteChar,021203H
        ARGFRAME XSTACK, 11, STACK
        ARGFRAME IOVERLAY, 0, STATIC
        ARGFRAME DOVERLAY, 0, STATIC
        LOCFRAME XSTACK, 9, STACK
        PUBLIC HalLcd_HW_WriteLine
        FUNCTION HalLcd_HW_WriteLine,021203H
        ARGFRAME XSTACK, 17, STACK
        ARGFRAME IOVERLAY, 0, STATIC
        ARGFRAME DOVERLAY, 0, STATIC
        LOCFRAME XSTACK, 11, STACK
        PUBWEAK P0DIR
        PUBWEAK P0SEL
        PUBWEAK P1DIR
        PUBWEAK P1SEL
        PUBWEAK _A_P0
        PUBWEAK _A_P1
        PUBLIC ascii_table_5x7
        PUBLIC set_ddram_line_col
        FUNCTION set_ddram_line_col,021203H
        ARGFRAME XSTACK, 13, STACK
        ARGFRAME IOVERLAY, 0, STATIC
        ARGFRAME DOVERLAY, 0, STATIC
        LOCFRAME XSTACK, 9, STACK
        
        CFI Names cfiNames0
        CFI StackFrame CFA_SP SP IDATA
        CFI StackFrame CFA_PSP16 PSP16 XDATA
        CFI StackFrame CFA_XSP16 XSP16 XDATA
        CFI StaticOverlayFrame CFA_IOVERLAY IOVERLAY
        CFI StaticOverlayFrame CFA_DOVERLAY DOVERLAY
        CFI Resource `PSW.CY`:1, `B.BR0`:1, `B.BR1`:1, `B.BR2`:1, `B.BR3`:1
        CFI Resource `B.BR4`:1, `B.BR5`:1, `B.BR6`:1, `B.BR7`:1, `VB.BR8`:1
        CFI Resource `VB.BR9`:1, `VB.BR10`:1, `VB.BR11`:1, `VB.BR12`:1
        CFI Resource `VB.BR13`:1, `VB.BR14`:1, `VB.BR15`:1, VB:8, B:8, A:8
        CFI Resource PSW:8, DPL0:8, DPH0:8, R0:8, R1:8, R2:8, R3:8, R4:8, R5:8
        CFI Resource R6:8, R7:8, V0:8, V1:8, V2:8, V3:8, V4:8, V5:8, V6:8, V7:8
        CFI Resource V8:8, V9:8, V10:8, V11:8, V12:8, V13:8, V14:8, V15:8, SP:8
        CFI Resource PSPH:8, PSPL:8, PSP16:16, XSPH:8, XSPL:8, XSP16:16
        CFI VirtualResource ?RET:24
        CFI Resource ?BRET_EXT:8
        CFI VirtualResource ?RET_HIGH:8, ?RET_LOW:8
        CFI ResourceParts PSP16 PSPH, PSPL
        CFI ResourceParts XSP16 XSPH, XSPL
        CFI ResourceParts ?RET ?BRET_EXT, ?RET_HIGH, ?RET_LOW
        CFI EndNames cfiNames0
        
        CFI Common cfiCommon0 Using cfiNames0
        CFI CodeAlign 1
        CFI DataAlign -1
        CFI ReturnAddress ?RET CODE
        CFI CFA_DOVERLAY Used
        CFI CFA_IOVERLAY Used
        CFI CFA_SP SP+-3
        CFI CFA_PSP16 PSP16+0
        CFI CFA_XSP16 XSP16+0
        CFI `PSW.CY` SameValue
        CFI `B.BR0` SameValue
        CFI `B.BR1` SameValue
        CFI `B.BR2` SameValue
        CFI `B.BR3` SameValue
        CFI `B.BR4` SameValue
        CFI `B.BR5` SameValue
        CFI `B.BR6` SameValue
        CFI `B.BR7` SameValue
        CFI `VB.BR8` SameValue
        CFI `VB.BR9` SameValue
        CFI `VB.BR10` SameValue
        CFI `VB.BR11` SameValue
        CFI `VB.BR12` SameValue
        CFI `VB.BR13` SameValue
        CFI `VB.BR14` SameValue
        CFI `VB.BR15` SameValue
        CFI VB SameValue
        CFI B Undefined
        CFI A Undefined
        CFI PSW SameValue
        CFI DPL0 SameValue
        CFI DPH0 SameValue
        CFI R0 Undefined
        CFI R1 Undefined
        CFI R2 Undefined
        CFI R3 Undefined
        CFI R4 Undefined
        CFI R5 Undefined
        CFI R6 SameValue
        CFI R7 SameValue
        CFI V0 SameValue
        CFI V1 SameValue
        CFI V2 SameValue
        CFI V3 SameValue
        CFI V4 SameValue
        CFI V5 SameValue
        CFI V6 SameValue
        CFI V7 SameValue
        CFI V8 SameValue
        CFI V9 SameValue
        CFI V10 SameValue
        CFI V11 SameValue
        CFI V12 SameValue
        CFI V13 SameValue
        CFI V14 SameValue
        CFI V15 SameValue
        CFI PSPH Undefined
        CFI PSPL Undefined
        CFI XSPH Undefined
        CFI XSPL Undefined
        CFI ?RET Concat
        CFI ?BRET_EXT Frame(CFA_SP, 3)
        CFI ?RET_HIGH Frame(CFA_SP, 2)
        CFI ?RET_LOW Frame(CFA_SP, 1)
        CFI EndCommon cfiCommon0
        
        
        CFI Common cfiCommon1 Using cfiNames0
        CFI CodeAlign 1
        CFI DataAlign -1
        CFI ReturnAddress ?RET CODE
        CFI CFA_DOVERLAY Used
        CFI CFA_IOVERLAY Used
        CFI CFA_SP SP+-2
        CFI CFA_PSP16 PSP16+0
        CFI CFA_XSP16 XSP16+0
        CFI `PSW.CY` SameValue
        CFI `B.BR0` SameValue
        CFI `B.BR1` SameValue
        CFI `B.BR2` SameValue
        CFI `B.BR3` SameValue
        CFI `B.BR4` SameValue
        CFI `B.BR5` SameValue
        CFI `B.BR6` SameValue
        CFI `B.BR7` SameValue
        CFI `VB.BR8` SameValue
        CFI `VB.BR9` SameValue
        CFI `VB.BR10` SameValue
        CFI `VB.BR11` SameValue
        CFI `VB.BR12` SameValue
        CFI `VB.BR13` SameValue
        CFI `VB.BR14` SameValue
        CFI `VB.BR15` SameValue
        CFI VB SameValue
        CFI B SameValue
        CFI A SameValue
        CFI PSW SameValue
        CFI DPL0 SameValue
        CFI DPH0 SameValue
        CFI R0 SameValue
        CFI R1 SameValue
        CFI R2 SameValue
        CFI R3 SameValue
        CFI R4 SameValue
        CFI R5 SameValue
        CFI R6 SameValue
        CFI R7 SameValue
        CFI V0 SameValue
        CFI V1 SameValue
        CFI V2 SameValue
        CFI V3 SameValue
        CFI V4 SameValue
        CFI V5 SameValue
        CFI V6 SameValue
        CFI V7 SameValue
        CFI V8 SameValue
        CFI V9 SameValue
        CFI V10 SameValue
        CFI V11 SameValue
        CFI V12 SameValue
        CFI V13 SameValue
        CFI V14 SameValue
        CFI V15 SameValue
        CFI PSPH Undefined
        CFI PSPL Undefined
        CFI XSPH Undefined
        CFI XSPL Undefined
        CFI ?RET Concat
        CFI ?BRET_EXT SameValue
        CFI ?RET_HIGH Frame(CFA_SP, 2)
        CFI ?RET_LOW Frame(CFA_SP, 1)
        CFI EndCommon cfiCommon1
        
osal_mem_alloc      SYMBOL "osal_mem_alloc"
osal_strlen         SYMBOL "osal_strlen"
osal_memcpy         SYMBOL "osal_memcpy"
osal_mem_free       SYMBOL "osal_mem_free"
_ltoa               SYMBOL "_ltoa"
??_ltoa?relay       SYMBOL "?relay", _ltoa
??osal_mem_alloc?relay SYMBOL "?relay", osal_mem_alloc
??osal_mem_free?relay SYMBOL "?relay", osal_mem_free
??osal_memcpy?relay SYMBOL "?relay", osal_memcpy
??osal_strlen?relay SYMBOL "?relay", osal_strlen
DisplayByte_5x7     SYMBOL "DisplayByte_5x7"
??DisplayByte_5x7?relay SYMBOL "?relay", DisplayByte_5x7
HalLcdDisplayPercentBar SYMBOL "HalLcdDisplayPercentBar"
??HalLcdDisplayPercentBar?relay SYMBOL "?relay", HalLcdDisplayPercentBar
HalLcdInit          SYMBOL "HalLcdInit"
??HalLcdInit?relay  SYMBOL "?relay", HalLcdInit
HalLcdWriteScreen   SYMBOL "HalLcdWriteScreen"
??HalLcdWriteScreen?relay SYMBOL "?relay", HalLcdWriteScreen
HalLcdWriteString   SYMBOL "HalLcdWriteString"
??HalLcdWriteString?relay SYMBOL "?relay", HalLcdWriteString
HalLcdWriteStringValue SYMBOL "HalLcdWriteStringValue"
??HalLcdWriteStringValue?relay SYMBOL "?relay", HalLcdWriteStringValue
HalLcdWriteStringValueValue SYMBOL "HalLcdWriteStringValueValue"
??HalLcdWriteStringValueValue?relay SYMBOL "?relay", HalLcdWriteStringValueValue
HalLcdWriteValue    SYMBOL "HalLcdWriteValue"
??HalLcdWriteValue?relay SYMBOL "?relay", HalLcdWriteValue
HalLcd_HW_Clear     SYMBOL "HalLcd_HW_Clear"
??HalLcd_HW_Clear?relay SYMBOL "?relay", HalLcd_HW_Clear
HalLcd_HW_Control   SYMBOL "HalLcd_HW_Control"
??HalLcd_HW_Control?relay SYMBOL "?relay", HalLcd_HW_Control
HalLcd_HW_Init      SYMBOL "HalLcd_HW_Init"
??HalLcd_HW_Init?relay SYMBOL "?relay", HalLcd_HW_Init
HalLcd_HW_WaitUs    SYMBOL "HalLcd_HW_WaitUs"
??HalLcd_HW_WaitUs?relay SYMBOL "?relay", HalLcd_HW_WaitUs
HalLcd_HW_Write     SYMBOL "HalLcd_HW_Write"
??HalLcd_HW_Write?relay SYMBOL "?relay", HalLcd_HW_Write
HalLcd_HW_WriteChar SYMBOL "HalLcd_HW_WriteChar"
??HalLcd_HW_WriteChar?relay SYMBOL "?relay", HalLcd_HW_WriteChar
HalLcd_HW_WriteLine SYMBOL "HalLcd_HW_WriteLine"
??HalLcd_HW_WriteLine?relay SYMBOL "?relay", HalLcd_HW_WriteLine
set_ddram_line_col  SYMBOL "set_ddram_line_col"
??set_ddram_line_col?relay SYMBOL "?relay", set_ddram_line_col

        EXTERN osal_mem_alloc
        FUNCTION osal_mem_alloc,0202H
        ARGFRAME ISTACK, 0, STACK
        ARGFRAME PSTACK, 0, STACK
        ARGFRAME XSTACK, 17, STACK
        ARGFRAME IOVERLAY, 0, STATIC
        ARGFRAME DOVERLAY, 0, STATIC
        EXTERN osal_strlen
        FUNCTION osal_strlen,0202H
        ARGFRAME ISTACK, 0, STACK
        ARGFRAME PSTACK, 0, STACK
        ARGFRAME XSTACK, 44, STACK
        ARGFRAME IOVERLAY, 0, STATIC
        ARGFRAME DOVERLAY, 0, STATIC
        EXTERN osal_memcpy
        FUNCTION osal_memcpy,0202H
        ARGFRAME ISTACK, 0, STACK
        ARGFRAME PSTACK, 0, STACK
        ARGFRAME XSTACK, 47, STACK
        ARGFRAME IOVERLAY, 0, STATIC
        ARGFRAME DOVERLAY, 0, STATIC
        EXTERN osal_mem_free
        FUNCTION osal_mem_free,0202H
        ARGFRAME ISTACK, 0, STACK
        ARGFRAME PSTACK, 0, STACK
        ARGFRAME XSTACK, 17, STACK
        ARGFRAME IOVERLAY, 0, STATIC
        ARGFRAME DOVERLAY, 0, STATIC
        EXTERN _ltoa
        FUNCTION _ltoa,0202H
        ARGFRAME ISTACK, 0, STACK
        ARGFRAME PSTACK, 0, STACK
        ARGFRAME XSTACK, 46, STACK
        ARGFRAME IOVERLAY, 0, STATIC
        ARGFRAME DOVERLAY, 0, STATIC
        EXTERN ??_ltoa?relay
        FUNCTION ??_ltoa?relay,00H
        EXTERN ??osal_mem_alloc?relay
        FUNCTION ??osal_mem_alloc?relay,00H
        EXTERN ??osal_mem_free?relay
        FUNCTION ??osal_mem_free?relay,00H
        EXTERN ??osal_memcpy?relay
        FUNCTION ??osal_memcpy?relay,00H
        EXTERN ??osal_strlen?relay
        FUNCTION ??osal_strlen?relay,00H

// C:\Users\JAL\Desktop\ZStack-CC2530-2.5.1a\Components\hal\target\CC2530EB\hal_lcd.c
//    1 /**************************************************************************************************
//    2   Filename:       hal_lcd.c
//    3   Revised:        $Date: 2012-08-03 14:28:46 -0700 (Fri, 03 Aug 2012) $
//    4   Revision:       $Revision: 31092 $
//    5 
//    6   Description:    This file contains the interface to the HAL LCD Service.
//    7 
//    8 
//    9   Copyright 2007 - 2010 Texas Instruments Incorporated. All rights reserved.
//   10 
//   11   IMPORTANT: Your use of this Software is limited to those specific rights
//   12   granted under the terms of a software license agreement between the user
//   13   who downloaded the software, his/her employer (which must be your employer)
//   14   and Texas Instruments Incorporated (the "License").  You may not use this
//   15   Software unless you agree to abide by the terms of the License. The License
//   16   limits your use, and you acknowledge, that the Software may not be modified,
//   17   copied or distributed unless embedded on a Texas Instruments microcontroller
//   18   or used solely and exclusively in conjunction with a Texas Instruments radio
//   19   frequency transceiver, which is integrated into your product.  Other than for
//   20   the foregoing purpose, you may not use, reproduce, copy, prepare derivative
//   21   works of, modify, distribute, perform, display or sell this Software and/or
//   22   its documentation for any purpose.
//   23 
//   24   YOU FURTHER ACKNOWLEDGE AND AGREE THAT THE SOFTWARE AND DOCUMENTATION ARE
//   25   PROVIDED AS IS?WITHOUT WARRANTY OF ANY KIND, EITHER EXPRESS OR IMPLIED,
//   26   INCLUDING WITHOUT LIMITATION, ANY WARRANTY OF MERCHANTABILITY, TITLE,
//   27   NON-INFRINGEMENT AND FITNESS FOR A PARTICULAR PURPOSE. IN NO EVENT SHALL
//   28   TEXAS INSTRUMENTS OR ITS LICENSORS BE LIABLE OR OBLIGATED UNDER CONTRACT,
//   29   NEGLIGENCE, STRICT LIABILITY, CONTRIBUTION, BREACH OF WARRANTY, OR OTHER
//   30   LEGAL EQUITABLE THEORY ANY DIRECT OR INDIRECT DAMAGES OR EXPENSES
//   31   INCLUDING BUT NOT LIMITED TO ANY INCIDENTAL, SPECIAL, INDIRECT, PUNITIVE
//   32   OR CONSEQUENTIAL DAMAGES, LOST PROFITS OR LOST DATA, COST OF PROCUREMENT
//   33   OF SUBSTITUTE GOODS, TECHNOLOGY, SERVICES, OR ANY CLAIMS BY THIRD PARTIES
//   34   (INCLUDING BUT NOT LIMITED TO ANY DEFENSE THEREOF), OR OTHER SIMILAR COSTS.
//   35 
//   36   Should you have any questions regarding your right to use this Software,
//   37   contact Texas Instruments Incorporated at www.TI.com.
//   38 **************************************************************************************************/
//   39 
//   40 /**************************************************************************************************
//   41  *                                           INCLUDES
//   42  **************************************************************************************************/
//   43 #include "hal_types.h"
//   44 #include "hal_lcd.h"

        ASEGN SFR_AN:DATA:NOROOT,080H
// union <unnamed> volatile __sfr _A_P0
_A_P0:
        DATA8
        DS 1

        ASEGN SFR_AN:DATA:NOROOT,090H
// union <unnamed> volatile __sfr _A_P1
_A_P1:
        DATA8
        DS 1

        ASEGN SFR_AN:DATA:NOROOT,0f3H
// unsigned char volatile __sfr P0SEL
P0SEL:
        DATA8
        DS 1

        ASEGN SFR_AN:DATA:NOROOT,0f4H
// unsigned char volatile __sfr P1SEL
P1SEL:
        DATA8
        DS 1

        ASEGN SFR_AN:DATA:NOROOT,0fdH
// unsigned char volatile __sfr P0DIR
P0DIR:
        DATA8
        DS 1

        ASEGN SFR_AN:DATA:NOROOT,0feH
// unsigned char volatile __sfr P1DIR
P1DIR:
        DATA8
        DS 1
//   45 #include "OSAL.h"
//   46 #include "OnBoard.h"
//   47 #include "hal_assert.h"
//   48 
//   49 //下面一行是我加的
//   50 __code const uint8 ascii_table_5x7[][5];
//   51 
//   52 #if defined (ZTOOL_P1) || defined (ZTOOL_P2)
//   53   #include "DebugTrace.h"
//   54 #endif
//   55 
//   56 /**************************************************************************************************
//   57  *                                          CONSTANTS
//   58  **************************************************************************************************/
//   59 /*
//   60   LCD pins
//   61 
//   62   //control
//   63   P0.0 - LCD_MODE
//   64   P1.1 - LCD_FLASH_RESET
//   65   P1.2 - LCD_CS
//   66 
//   67   //spi
//   68   P1.5 - CLK
//   69   P1.6 - MOSI
//   70   P1.7 - MISO
//   71 */
//   72 
//   73 /* LCD Max Chars and Buffer */
//   74 #define HAL_LCD_MAX_CHARS   16
//   75 #define HAL_LCD_MAX_BUFF    25
//   76 
//   77 /* LCD Control lines */
//   78 #define HAL_LCD_MODE_PORT 0
//   79 #define HAL_LCD_MODE_PIN  0
//   80 
//   81 #define HAL_LCD_RESET_PORT 1
//   82 #define HAL_LCD_RESET_PIN  1
//   83 
//   84 #define HAL_LCD_CS_PORT 1
//   85 #define HAL_LCD_CS_PIN  2
//   86 
//   87 /* LCD SPI lines */
//   88 #define HAL_LCD_CLK_PORT 1
//   89 #define HAL_LCD_CLK_PIN  5
//   90 
//   91 #define HAL_LCD_MOSI_PORT 1
//   92 #define HAL_LCD_MOSI_PIN  6
//   93 
//   94 #define HAL_LCD_MISO_PORT 1
//   95 #define HAL_LCD_MISO_PIN  7
//   96 
//   97 /* SPI settings */
//   98 #define HAL_SPI_CLOCK_POL_LO       0x00
//   99 #define HAL_SPI_CLOCK_PHA_0        0x00
//  100 #define HAL_SPI_TRANSFER_MSB_FIRST 0x20
//  101 
//  102 /* LCD lines */
//  103 #define LCD_MAX_LINE_COUNT              8
//  104 
//  105 /* Defines for HW LCD */
//  106 
//  107 /* Set power save mode */
//  108 #define OSC_OFF                         0x00
//  109 #define OSC_ON                          0x01
//  110 #define POWER_SAVE_OFF                  0x00
//  111 #define POWER_SAVE_ON                   0x02
//  112 #define SET_POWER_SAVE_MODE(options)    HalLcd_HW_Control(0x0C | (options))
//  113 
//  114 /* Function Set */
//  115 #define CGROM                           0x00
//  116 #define CGRAM                           0x01
//  117 #define COM_FORWARD                     0x00
//  118 #define COM_BACKWARD                    0x02
//  119 #define TWO_LINE                        0x00
//  120 #define THREE_LINE                      0x04
//  121 #define FUNCTION_SET(options)           HalLcd_HW_Control(0x10 | (options))
//  122 
//  123 /* Set Display Start Line */
//  124 #define LINE1                           0x00
//  125 #define LINE2                           0x01
//  126 #define LINE3                           0x02
//  127 #define LINE4                           0x03
//  128 #define SET_DISPLAY_START_LINE(line)    HalLcd_HW_Control(0x18 | (line))
//  129 
//  130 /* Bias control */
//  131 #define BIAS_1_5                        0x00
//  132 #define BIAS_1_4                        0x01
//  133 #define SET_BIAS_CTRL(bias)             HalLcd_HW_Control(0x1C | (bias))
//  134 
//  135 /* Power control */
//  136 #define VOLTAGE_DIVIDER_OFF             0x00
//  137 #define VOLTAGE_DIVIDER_ON              0x01
//  138 #define CONVERTER_AND_REG_OFF           0x00
//  139 #define CONVERTER_AND_REG_ON            0x04
//  140 #define SET_POWER_CTRL(options)         HalLcd_HW_Control(0x20 | (options))
//  141 
//  142 // Set display control
//  143 #define DISPLAY_CTRL_ON                 0x01
//  144 #define DISPLAY_CTRL_OFF                0x00
//  145 #define DISPLAY_CTRL_BLINK_ON           0x02
//  146 #define DISPLAY_CTRL_BLINK_OFF          0x00
//  147 #define DISPLAY_CTRL_CURSOR_ON          0x04
//  148 #define DISPLAY_CTRL_CURSOR_OFF         0x00
//  149 #define SET_DISPLAY_CTRL(options)       HalLcd_HW_Control(0x28 | (options))
//  150 
//  151 /* Set DD/ CGRAM address */
//  152 #define SET_DDRAM_ADDR(charIndex)       HalLcd_HW_Control(0x80 | (charIndex))
//  153 #define SET_GCRAM_CHAR(specIndex)       HalLcd_HW_Control(0xC0 | (specIndex))
//  154 
//  155 /* Set ICONRAM address */
//  156 #define CONTRAST_CTRL_REGISTER          0x10
//  157 #define SET_ICONRAM_ADDR(addr)          HalLcd_HW_Control(0x40 | (addr))
//  158 
//  159 /* Set double height */
//  160 #define LINE_1_AND_2                    0x01
//  161 #define LINE_2_AND_3                    0x02
//  162 #define NORMAL_DISPLAY                  0x00
//  163 #define SET_DOUBLE_HEIGHT(options)      HalLcd_HW_Control(0x08 | (options))
//  164 
//  165 /**************************************************************************************************
//  166  *                                           MACROS
//  167  **************************************************************************************************/
//  168 
//  169 #define HAL_IO_SET(port, pin, val)        HAL_IO_SET_PREP(port, pin, val)
//  170 #define HAL_IO_SET_PREP(port, pin, val)   st( P##port##_##pin## = val; )
//  171 
//  172 #define HAL_CONFIG_IO_OUTPUT(port, pin, val)      HAL_CONFIG_IO_OUTPUT_PREP(port, pin, val)
//  173 #define HAL_CONFIG_IO_OUTPUT_PREP(port, pin, val) st( P##port##SEL &= ~BV(pin); \ 
//  174                                                       P##port##_##pin## = val; \ 
//  175                                                       P##port##DIR |= BV(pin); )
//  176 
//  177 #define HAL_CONFIG_IO_PERIPHERAL(port, pin)      HAL_CONFIG_IO_PERIPHERAL_PREP(port, pin)
//  178 #define HAL_CONFIG_IO_PERIPHERAL_PREP(port, pin) st( P##port##SEL |= BV(pin); )
//  179 
//  180 
//  181 
//  182 /* SPI interface control */
//  183 #define LCD_SPI_BEGIN()     HAL_IO_SET(HAL_LCD_CS_PORT,  HAL_LCD_CS_PIN,  0); /* chip select */
//  184 #define LCD_SPI_END()                                                         \ 
//  185 {                                                                             \ 
//  186   asm("NOP");                                                                 \ 
//  187   asm("NOP");                                                                 \ 
//  188   asm("NOP");                                                                 \ 
//  189   asm("NOP");                                                                 \ 
//  190   HAL_IO_SET(HAL_LCD_CS_PORT,  HAL_LCD_CS_PIN,  1); /* chip select */         \ 
//  191 }
//  192 /* clear the received and transmit byte status, write tx data to buffer, wait till transmit done */
//  193 #define LCD_SPI_TX(x)                   { U1CSR &= ~(BV(2) | BV(1)); U1DBUF = x; while( !(U1CSR & BV(1)) ); }
//  194 #define LCD_SPI_WAIT_RXRDY()            { while(!(U1CSR & BV(1))); }
//  195 
//  196 
//  197 /* Control macros */
//  198 #define LCD_DO_WRITE()        HAL_IO_SET(HAL_LCD_MODE_PORT,  HAL_LCD_MODE_PIN,  1);
//  199 #define LCD_DO_CONTROL()      HAL_IO_SET(HAL_LCD_MODE_PORT,  HAL_LCD_MODE_PIN,  0);
//  200 
//  201 #define LCD_ACTIVATE_RESET()  HAL_IO_SET(HAL_LCD_RESET_PORT, HAL_LCD_RESET_PIN, 0);
//  202 #define LCD_RELEASE_RESET()   HAL_IO_SET(HAL_LCD_RESET_PORT, HAL_LCD_RESET_PIN, 1);
//  203 
//  204 
//  205 /**************************************************************************************************
//  206  *                                       GLOBAL VARIABLES
//  207  **************************************************************************************************/
//  208 #if (HAL_LCD == TRUE)

        RSEG XDATA_Z:XDATA:NOROOT(0)
        DATA16
//  209 static uint8 *Lcd_Line1;
Lcd_Line1:
        DS 2
        REQUIRE __INIT_XDATA_Z
//  210 #endif //LCD
//  211 
//  212 /**************************************************************************************************
//  213  *                                       FUNCTIONS - API
//  214  **************************************************************************************************/
//  215 #if (HAL_LCD == TRUE)
//  216 void HalLcd_HW_Init(void);
//  217 void HalLcd_HW_WaitUs(uint16 i);
//  218 void HalLcd_HW_Clear(void);
//  219 void HalLcd_HW_ClearAllSpecChars(void);
//  220 void HalLcd_HW_Control(uint8 cmd);
//  221 void HalLcd_HW_Write(uint8 data);
//  222 void HalLcd_HW_SetContrast(uint8 value);
//  223 void HalLcd_HW_WriteChar(uint8 line, uint8 col, char text);
//  224 void HalLcd_HW_WriteLine(uint8 line, const char *pText);
//  225 
//  226 void set_ddram_line_col(uint8 line,uint8 col);
//  227 void DisplayByte_5x7(uint8 page,uint8 column,char text);
//  228 #endif //LCD
//  229 
//  230 /**************************************************************************************************
//  231  * @fn      HalLcdInit
//  232  *
//  233  * @brief   Initilize LCD Service
//  234  *
//  235  * @param   None
//  236  *
//  237  * @return  None
//  238  **************************************************************************************************/

        RSEG BANKED_CODE:CODE:NOROOT(0)
//  239 void HalLcdInit(void)
HalLcdInit:
        CFI Block cfiBlock0 Using cfiCommon0
        CFI Function HalLcdInit
        CODE
//  240 {
        FUNCALL HalLcdInit, HalLcd_HW_Init
        LOCFRAME ISTACK, 2, STACK
        LOCFRAME PSTACK, 0, STACK
        LOCFRAME XSTACK, 0, STACK
        LOCFRAME IOVERLAY, 0, STATIC
        LOCFRAME DOVERLAY, 0, STATIC
        ARGFRAME ISTACK, 2, STACK
        ARGFRAME PSTACK, 0, STACK
        ARGFRAME XSTACK, 0, STACK
        ARGFRAME IOVERLAY, 0, STATIC
        ARGFRAME DOVERLAY, 0, STATIC
        PUSH    DPL
        CFI DPL0 Frame(CFA_SP, 4)
        CFI CFA_SP SP+-4
        PUSH    DPH
        CFI DPH0 Frame(CFA_SP, 5)
        CFI CFA_SP SP+-5
        ; Saved register size: 2
        ; Auto size: 0
//  241 #if (HAL_LCD == TRUE)
//  242   Lcd_Line1 = NULL;
        MOV     DPTR,#Lcd_Line1
        CLR     A
        MOVX    @DPTR,A
        INC     DPTR
        MOVX    @DPTR,A
//  243   HalLcd_HW_Init();
        ; Setup parameters for call to function HalLcd_HW_Init
        LCALL   ??HalLcd_HW_Init?relay
        CFI EndBlock cfiBlock0
//  244 #endif
//  245 }
        REQUIRE ?Subroutine0
        ; // Fall through to label ?Subroutine0

        RSEG BANKED_CODE:CODE:NOROOT(0)
?Subroutine0:
        CFI Block cfiBlock1 Using cfiCommon0
        CFI NoFunction
        CFI CFA_SP SP+-5
        CFI DPL0 Frame(CFA_SP, 4)
        CFI DPH0 Frame(CFA_SP, 5)
        POP     DPH
        CFI CFA_SP SP+-4
        CFI DPH0 SameValue
        POP     DPL
        CFI CFA_SP SP+-3
        CFI DPL0 SameValue
        LJMP    ?BRET
        CFI EndBlock cfiBlock1
//  246 
//  247 /*************************************************************************************************
//  248  *                    LCD EMULATION FUNCTIONS
//  249  *
//  250  * Some evaluation boards are equipped with Liquid Crystal Displays
//  251  * (LCD) which may be used to display diagnostic information. These
//  252  * functions provide LCD emulation, sending the diagnostic strings
//  253  * to Z-Tool via the RS232 serial port. These functions are enabled
//  254  * when the "LCD_SUPPORTED" compiler flag is placed in the makefile.
//  255  *
//  256  * Most applications update both lines (1 and 2) of the LCD whenever
//  257  * text is posted to the device. This emulator assumes that line 1 is
//  258  * updated first (saved locally) and the formatting and send operation
//  259  * is triggered by receipt of line 2. Nothing will be transmitted if
//  260  * only line 1 is updated.
//  261  *
//  262  *************************************************************************************************/
//  263 
//  264 
//  265 /**************************************************************************************************
//  266  * @fn      HalLcdWriteString
//  267  *
//  268  * @brief   Write a string to the LCD
//  269  *
//  270  * @param   str    - pointer to the string that will be displayed
//  271  *          option - display options
//  272  *
//  273  * @return  None
//  274  **************************************************************************************************/

        RSEG BANKED_CODE:CODE:NOROOT(0)
//  275 void HalLcdWriteString ( char *str, uint8 option)
HalLcdWriteString:
        CFI Block cfiBlock2 Using cfiCommon0
        CFI Function HalLcdWriteString
        CODE
//  276 {
        FUNCALL HalLcdWriteString, osal_mem_alloc
        LOCFRAME ISTACK, 0, STACK
        LOCFRAME PSTACK, 0, STACK
        LOCFRAME XSTACK, 17, STACK
        LOCFRAME IOVERLAY, 0, STATIC
        LOCFRAME DOVERLAY, 0, STATIC
        ARGFRAME ISTACK, 0, STACK
        ARGFRAME PSTACK, 0, STACK
        ARGFRAME XSTACK, 17, STACK
        ARGFRAME IOVERLAY, 0, STATIC
        ARGFRAME DOVERLAY, 0, STATIC
        FUNCALL HalLcdWriteString, HalLcdWriteString
        LOCFRAME ISTACK, 0, STACK
        LOCFRAME PSTACK, 0, STACK
        LOCFRAME XSTACK, 17, STACK
        LOCFRAME IOVERLAY, 0, STATIC
        LOCFRAME DOVERLAY, 0, STATIC
        ARGFRAME ISTACK, 0, STACK
        ARGFRAME PSTACK, 0, STACK
        ARGFRAME XSTACK, 17, STACK
        ARGFRAME IOVERLAY, 0, STATIC
        ARGFRAME DOVERLAY, 0, STATIC
        FUNCALL HalLcdWriteString, osal_strlen
        LOCFRAME ISTACK, 0, STACK
        LOCFRAME PSTACK, 0, STACK
        LOCFRAME XSTACK, 17, STACK
        LOCFRAME IOVERLAY, 0, STATIC
        LOCFRAME DOVERLAY, 0, STATIC
        ARGFRAME ISTACK, 0, STACK
        ARGFRAME PSTACK, 0, STACK
        ARGFRAME XSTACK, 17, STACK
        ARGFRAME IOVERLAY, 0, STATIC
        ARGFRAME DOVERLAY, 0, STATIC
        FUNCALL HalLcdWriteString, osal_memcpy
        LOCFRAME ISTACK, 0, STACK
        LOCFRAME PSTACK, 0, STACK
        LOCFRAME XSTACK, 20, STACK
        LOCFRAME IOVERLAY, 0, STATIC
        LOCFRAME DOVERLAY, 0, STATIC
        ARGFRAME ISTACK, 0, STACK
        ARGFRAME PSTACK, 0, STACK
        ARGFRAME XSTACK, 20, STACK
        ARGFRAME IOVERLAY, 0, STATIC
        ARGFRAME DOVERLAY, 0, STATIC
        FUNCALL HalLcdWriteString, osal_strlen
        LOCFRAME ISTACK, 0, STACK
        LOCFRAME PSTACK, 0, STACK
        LOCFRAME XSTACK, 17, STACK
        LOCFRAME IOVERLAY, 0, STATIC
        LOCFRAME DOVERLAY, 0, STATIC
        ARGFRAME ISTACK, 0, STACK
        ARGFRAME PSTACK, 0, STACK
        ARGFRAME XSTACK, 17, STACK
        ARGFRAME IOVERLAY, 0, STATIC
        ARGFRAME DOVERLAY, 0, STATIC
        FUNCALL HalLcdWriteString, osal_mem_alloc
        LOCFRAME ISTACK, 0, STACK
        LOCFRAME PSTACK, 0, STACK
        LOCFRAME XSTACK, 17, STACK
        LOCFRAME IOVERLAY, 0, STATIC
        LOCFRAME DOVERLAY, 0, STATIC
        ARGFRAME ISTACK, 0, STACK
        ARGFRAME PSTACK, 0, STACK
        ARGFRAME XSTACK, 17, STACK
        ARGFRAME IOVERLAY, 0, STATIC
        ARGFRAME DOVERLAY, 0, STATIC
        FUNCALL HalLcdWriteString, osal_memcpy
        LOCFRAME ISTACK, 0, STACK
        LOCFRAME PSTACK, 0, STACK
        LOCFRAME XSTACK, 20, STACK
        LOCFRAME IOVERLAY, 0, STATIC
        LOCFRAME DOVERLAY, 0, STATIC
        ARGFRAME ISTACK, 0, STACK
        ARGFRAME PSTACK, 0, STACK
        ARGFRAME XSTACK, 20, STACK
        ARGFRAME IOVERLAY, 0, STATIC
        ARGFRAME DOVERLAY, 0, STATIC
        FUNCALL HalLcdWriteString, osal_memcpy
        LOCFRAME ISTACK, 0, STACK
        LOCFRAME PSTACK, 0, STACK
        LOCFRAME XSTACK, 20, STACK
        LOCFRAME IOVERLAY, 0, STATIC
        LOCFRAME DOVERLAY, 0, STATIC
        ARGFRAME ISTACK, 0, STACK
        ARGFRAME PSTACK, 0, STACK
        ARGFRAME XSTACK, 20, STACK
        ARGFRAME IOVERLAY, 0, STATIC
        ARGFRAME DOVERLAY, 0, STATIC
        FUNCALL HalLcdWriteString, osal_mem_free
        LOCFRAME ISTACK, 0, STACK
        LOCFRAME PSTACK, 0, STACK
        LOCFRAME XSTACK, 17, STACK
        LOCFRAME IOVERLAY, 0, STATIC
        LOCFRAME DOVERLAY, 0, STATIC
        ARGFRAME ISTACK, 0, STACK
        ARGFRAME PSTACK, 0, STACK
        ARGFRAME XSTACK, 17, STACK
        ARGFRAME IOVERLAY, 0, STATIC
        ARGFRAME DOVERLAY, 0, STATIC
        FUNCALL HalLcdWriteString, HalLcd_HW_WriteLine
        LOCFRAME ISTACK, 0, STACK
        LOCFRAME PSTACK, 0, STACK
        LOCFRAME XSTACK, 17, STACK
        LOCFRAME IOVERLAY, 0, STATIC
        LOCFRAME DOVERLAY, 0, STATIC
        ARGFRAME ISTACK, 0, STACK
        ARGFRAME PSTACK, 0, STACK
        ARGFRAME XSTACK, 17, STACK
        ARGFRAME IOVERLAY, 0, STATIC
        ARGFRAME DOVERLAY, 0, STATIC
        MOV     A,#-0x11
        LCALL   ?BANKED_ENTER_XDATA
        CFI DPH0 load(1, XDATA, add(CFA_XSP16, literal(-1)))
        CFI DPL0 load(1, XDATA, add(CFA_XSP16, literal(-2)))
        CFI ?BRET_EXT load(1, XDATA, add(CFA_XSP16, literal(-3)))
        CFI ?RET_HIGH load(1, XDATA, add(CFA_XSP16, literal(-4)))
        CFI ?RET_LOW load(1, XDATA, add(CFA_XSP16, literal(-5)))
        CFI R7 load(1, XDATA, add(CFA_XSP16, literal(-6)))
        CFI V8 load(1, XDATA, add(CFA_XSP16, literal(-7)))
        CFI V7 load(1, XDATA, add(CFA_XSP16, literal(-8)))
        CFI V6 load(1, XDATA, add(CFA_XSP16, literal(-9)))
        CFI V5 load(1, XDATA, add(CFA_XSP16, literal(-10)))
        CFI V4 load(1, XDATA, add(CFA_XSP16, literal(-11)))
        CFI V3 load(1, XDATA, add(CFA_XSP16, literal(-12)))
        CFI V2 load(1, XDATA, add(CFA_XSP16, literal(-13)))
        CFI V1 load(1, XDATA, add(CFA_XSP16, literal(-14)))
        CFI V0 load(1, XDATA, add(CFA_XSP16, literal(-15)))
        CFI VB load(1, XDATA, add(CFA_XSP16, literal(-16)))
        CFI R6 load(1, XDATA, add(CFA_XSP16, literal(-17)))
        CFI CFA_SP SP+0
        CFI CFA_XSP16 add(XSP16, 17)
        ; Saved register size: 17
        ; Auto size: 0
        MOV     A,R2
        MOV     R6,A
        MOV     A,R3
        MOV     R7,A
        MOV     ?V0 + 8,R1
//  277 #if (HAL_LCD == TRUE)
//  278 
//  279   uint8 strLen = 0;
//  280   uint8 totalLen = 0;
//  281   uint8 *buf;
//  282   uint8 tmpLen;
//  283 
//  284   if ( Lcd_Line1 == NULL )
        MOV     DPTR,#Lcd_Line1
        MOVX    A,@DPTR
        MOV     R0,A
        INC     DPTR
        MOVX    A,@DPTR
        MOV     R1,A
        MOV     A,R0
        ORL     A,R1
        JNZ     ??HalLcdWriteString_0
//  285   {
//  286     Lcd_Line1 = osal_mem_alloc( HAL_LCD_MAX_CHARS+1 );
        ; Setup parameters for call to function osal_mem_alloc
        MOV     R2,#0x11
        MOV     R3,#0x0
        LCALL   ??osal_mem_alloc?relay
        MOV     DPTR,#Lcd_Line1
        MOV     A,R2
        MOVX    @DPTR,A
        INC     DPTR
        MOV     A,R3
        MOVX    @DPTR,A
//  287     HalLcdWriteString( "Texas Instruments", 1 );
        ; Setup parameters for call to function HalLcdWriteString
        MOV     R1,#0x1
        MOV     R2,#`?<Constant "Texas Instruments">` & 0xff
        MOV     R3,#(`?<Constant "Texas Instruments">` >> 8) & 0xff
        LCALL   ??HalLcdWriteString?relay
//  288   }
//  289 
//  290   strLen = (uint8)osal_strlen( (char*)str );
??HalLcdWriteString_0:
        ; Setup parameters for call to function osal_strlen
        MOV     A,R6
        MOV     R2,A
        MOV     A,R7
        MOV     R3,A
        LCALL   ??osal_strlen?relay
        MOV     A,R2
        MOV     ?V0 + 7,A
//  291 
//  292   /* Check boundries */
//  293   if ( strLen > HAL_LCD_MAX_CHARS )
        CLR     C
        SUBB    A,#0x11
        JC      ??HalLcdWriteString_1
//  294     strLen = HAL_LCD_MAX_CHARS;
        MOV     ?V0 + 7,#0x10
//  295 
//  296   if ( option == HAL_LCD_LINE_1 )
??HalLcdWriteString_1:
        MOV     A,#0x1
        XRL     A,?V0 + 8
        JNZ     ??HalLcdWriteString_2
//  297   {
//  298     /* Line 1 gets saved for later */
//  299     osal_memcpy( Lcd_Line1, str, strLen );
        ; Setup parameters for call to function osal_memcpy
        MOV     ?V0 + 0,R6
        MOV     ?V0 + 1,R7
        MOV     ?V0 + 2,#0x0
        MOV     R0,#?V0 + 0
        LCALL   ?PUSH_XSTACK_I_THREE
        CFI CFA_XSP16 add(XSP16, 20)
        MOV     ?V0 + 0,?V0 + 7
        MOV     R4,?V0 + 0
        MOV     R5,#0x0
        MOV     DPTR,#Lcd_Line1
        MOVX    A,@DPTR
        MOV     R2,A
        INC     DPTR
        MOVX    A,@DPTR
        MOV     R3,A
        LCALL   ??Subroutine10_0 & 0xFFFF
??CrossCallReturnLabel_13:
        LCALL   ?DEALLOC_XSTACK8
        CFI CFA_XSP16 add(XSP16, 17)
//  300     Lcd_Line1[strLen] = '\0';
        MOV     R0,?V0 + 7
        MOV     DPTR,#Lcd_Line1
        MOVX    A,@DPTR
        ADD     A,R0
        MOV     R2,A
        INC     DPTR
        MOVX    A,@DPTR
        ADDC    A,#0x0
        MOV     DPL,R2
        MOV     DPH,A
        CLR     A
        MOVX    @DPTR,A
        LJMP    ??HalLcdWriteString_3 & 0xFFFF
//  301   }
//  302   else
//  303   {
//  304     /* Line 2 triggers action */
//  305     tmpLen = (uint8)osal_strlen( (char*)Lcd_Line1 );
??HalLcdWriteString_2:
        ; Setup parameters for call to function osal_strlen
        MOV     DPTR,#Lcd_Line1
        MOVX    A,@DPTR
        MOV     R2,A
        INC     DPTR
        MOVX    A,@DPTR
        MOV     R3,A
        LCALL   ?Subroutine5 & 0xFFFF
//  306     totalLen =  tmpLen + 1 + strLen + 1;
//  307     buf = osal_mem_alloc( totalLen );
??CrossCallReturnLabel_0:
        ; Setup parameters for call to function osal_mem_alloc
        ADD     A,?V0 + 7
        ADD     A,#0x2
        MOV     R2,A
        MOV     R3,#0x0
        LCALL   ??osal_mem_alloc?relay
        MOV     ?V0 + 0,R2
        MOV     ?V0 + 1,R3
//  308     if ( buf != NULL )
        MOV     A,R2
        ORL     A,?V0 + 1
        JZ      ??HalLcdWriteString_3
//  309     {
//  310       /* Concatenate strings */
//  311       osal_memcpy( buf, Lcd_Line1, tmpLen );
        ; Setup parameters for call to function osal_memcpy
        MOV     DPTR,#Lcd_Line1
        MOVX    A,@DPTR
        MOV     ?V0 + 4,A
        INC     DPTR
        MOVX    A,@DPTR
        MOV     ?V0 + 5,A
        MOV     ?V0 + 6,#0x0
        MOV     R0,#?V0 + 4
        LCALL   ?PUSH_XSTACK_I_THREE
        CFI CFA_XSP16 add(XSP16, 20)
        MOV     ?V0 + 4,?V0 + 2
        MOV     R4,?V0 + 4
        MOV     R5,#0x0
        LCALL   ??Subroutine10_0 & 0xFFFF
??CrossCallReturnLabel_14:
        LCALL   ?DEALLOC_XSTACK8
        CFI CFA_XSP16 add(XSP16, 17)
//  312       buf[tmpLen++] = ' ';
        MOV     A,?V0 + 0
        ADD     A,?V0 + 4
        MOV     DPL,A
        MOV     A,?V0 + 1
        LCALL   ??Subroutine12_0 & 0xFFFF
??CrossCallReturnLabel_16:
        INC     ?V0 + 2
//  313       osal_memcpy( &buf[tmpLen], str, strLen );
        ; Setup parameters for call to function osal_memcpy
        MOV     ?V0 + 4,R6
        MOV     ?V0 + 5,R7
        MOV     R0,#?V0 + 4
        LCALL   ?PUSH_XSTACK_I_THREE
        CFI CFA_XSP16 add(XSP16, 20)
        MOV     ?V0 + 4,?V0 + 7
        MOV     R4,?V0 + 4
        MOV     R5,#0x0
        MOV     A,?V0 + 0
        ADD     A,?V0 + 2
        MOV     R2,A
        MOV     A,?V0 + 1
        ADDC    A,#0x0
        MOV     R3,A
        LCALL   ??Subroutine10_0 & 0xFFFF
??CrossCallReturnLabel_15:
        LCALL   ?DEALLOC_XSTACK8
        CFI CFA_XSP16 add(XSP16, 17)
//  314       buf[tmpLen+strLen] = '\0';
        MOV     A,?V0 + 2
        ADD     A,?V0 + 4
        MOV     R0,A
        CLR     A
        ADDC    A,#0x0
        MOV     R1,A
        MOV     A,?V0 + 0
        ADD     A,R0
        MOV     DPL,A
        MOV     A,?V0 + 1
        ADDC    A,R1
        MOV     DPH,A
        CLR     A
        MOVX    @DPTR,A
//  315 
//  316       /* Send it out */
//  317 #if defined (ZTOOL_P1) || defined (ZTOOL_P2)
//  318 
//  319 //#if defined(SERIAL_DEBUG_SUPPORTED)
//  320 //      debug_str( (uint8*)buf );
//  321 //#endif //LCD_SUPPORTED
//  322 
//  323 #endif //ZTOOL_P1
//  324 
//  325       /* Free mem */
//  326       osal_mem_free( buf );
        ; Setup parameters for call to function osal_mem_free
        MOV     R2,?V0 + 0
        MOV     R3,?V0 + 1
        LCALL   ??osal_mem_free?relay
//  327     }
//  328   }
//  329 
//  330   /* Display the string */
//  331   HalLcd_HW_WriteLine (option, str);
??HalLcdWriteString_3:
        ; Setup parameters for call to function HalLcd_HW_WriteLine
        MOV     A,R6
        MOV     R2,A
        MOV     A,R7
        MOV     R3,A
        MOV     R1,?V0 + 8
        LCALL   ??HalLcd_HW_WriteLine?relay
//  332 
//  333 #endif //HAL_LCD
//  334 
//  335 }
        MOV     R7,#0x9
        LJMP    ?BANKED_LEAVE_XDATA
        CFI EndBlock cfiBlock2
//  336 
//  337 /**************************************************************************************************
//  338  * @fn      HalLcdWriteValue
//  339  *
//  340  * @brief   Write a value to the LCD
//  341  *
//  342  * @param   value  - value that will be displayed
//  343  *          radix  - 8, 10, 16
//  344  *          option - display options
//  345  *
//  346  * @return  None
//  347  **************************************************************************************************/

        RSEG BANKED_CODE:CODE:NOROOT(0)
//  348 void HalLcdWriteValue ( uint32 value, const uint8 radix, uint8 option)
HalLcdWriteValue:
        CFI Block cfiBlock3 Using cfiCommon0
        CFI Function HalLcdWriteValue
        CODE
//  349 {
        FUNCALL HalLcdWriteValue, _ltoa
        LOCFRAME ISTACK, 0, STACK
        LOCFRAME PSTACK, 0, STACK
        LOCFRAME XSTACK, 43, STACK
        LOCFRAME IOVERLAY, 0, STATIC
        LOCFRAME DOVERLAY, 0, STATIC
        ARGFRAME ISTACK, 0, STACK
        ARGFRAME PSTACK, 0, STACK
        ARGFRAME XSTACK, 43, STACK
        ARGFRAME IOVERLAY, 0, STATIC
        ARGFRAME DOVERLAY, 0, STATIC
        FUNCALL HalLcdWriteValue, HalLcdWriteString
        LOCFRAME ISTACK, 0, STACK
        LOCFRAME PSTACK, 0, STACK
        LOCFRAME XSTACK, 41, STACK
        LOCFRAME IOVERLAY, 0, STATIC
        LOCFRAME DOVERLAY, 0, STATIC
        ARGFRAME ISTACK, 0, STACK
        ARGFRAME PSTACK, 0, STACK
        ARGFRAME XSTACK, 41, STACK
        ARGFRAME IOVERLAY, 0, STATIC
        ARGFRAME DOVERLAY, 0, STATIC
        MOV     A,#-0x10
        LCALL   ?BANKED_ENTER_XDATA
        CFI DPH0 load(1, XDATA, add(CFA_XSP16, literal(-1)))
        CFI DPL0 load(1, XDATA, add(CFA_XSP16, literal(-2)))
        CFI ?BRET_EXT load(1, XDATA, add(CFA_XSP16, literal(-3)))
        CFI ?RET_HIGH load(1, XDATA, add(CFA_XSP16, literal(-4)))
        CFI ?RET_LOW load(1, XDATA, add(CFA_XSP16, literal(-5)))
        CFI R7 load(1, XDATA, add(CFA_XSP16, literal(-6)))
        CFI V7 load(1, XDATA, add(CFA_XSP16, literal(-7)))
        CFI V6 load(1, XDATA, add(CFA_XSP16, literal(-8)))
        CFI V5 load(1, XDATA, add(CFA_XSP16, literal(-9)))
        CFI V4 load(1, XDATA, add(CFA_XSP16, literal(-10)))
        CFI V3 load(1, XDATA, add(CFA_XSP16, literal(-11)))
        CFI V2 load(1, XDATA, add(CFA_XSP16, literal(-12)))
        CFI V1 load(1, XDATA, add(CFA_XSP16, literal(-13)))
        CFI V0 load(1, XDATA, add(CFA_XSP16, literal(-14)))
        CFI VB load(1, XDATA, add(CFA_XSP16, literal(-15)))
        CFI R6 load(1, XDATA, add(CFA_XSP16, literal(-16)))
        CFI CFA_SP SP+0
        CFI CFA_XSP16 add(XSP16, 16)
        ; Saved register size: 16
        ; Auto size: 25
        MOV     A,#-0x19
        LCALL   ?ALLOC_XSTACK8
        CFI CFA_XSP16 add(XSP16, 41)
        MOV     A,#0x29
        LCALL   ?XSTACK_DISP0_8
        MOVX    A,@DPTR
        MOV     R6,A
//  350 #if (HAL_LCD == TRUE)
//  351   uint8 buf[HAL_LCD_MAX_BUFF];
//  352 
//  353   _ltoa( value, &buf[0], radix );
        ; Setup parameters for call to function _ltoa
        MOV     DPL,?XSP + 0
        MOV     DPH,?XSP + 1
        MOV     ?V0 + 0,DPL
        MOV     ?V0 + 1,DPH
        MOV     R0,#?V0 + 0
        LCALL   ?PUSH_XSTACK_I_TWO
        CFI CFA_XSP16 add(XSP16, 43)
        LCALL   ??Subroutine9_0 & 0xFFFF
??CrossCallReturnLabel_9:
        LCALL   ?DEALLOC_XSTACK8
        CFI CFA_XSP16 add(XSP16, 41)
//  354   HalLcdWriteString( (char*)buf, option );
        ; Setup parameters for call to function HalLcdWriteString
        MOV     A,R6
        MOV     R1,A
        MOV     DPL,?XSP + 0
        MOV     DPH,?XSP + 1
        MOV     R2,DPL
        MOV     R3,DPH
        LCALL   ??HalLcdWriteString?relay
//  355 #endif
//  356 }
        MOV     A,#0x19
        LCALL   ?DEALLOC_XSTACK8
        CFI CFA_XSP16 add(XSP16, 16)
        MOV     R7,#0x8
        LJMP    ?BANKED_LEAVE_XDATA
        CFI EndBlock cfiBlock3
//  357 
//  358 /**************************************************************************************************
//  359  * @fn      HalLcdWriteScreen
//  360  *
//  361  * @brief   Write a value to the LCD
//  362  *
//  363  * @param   line1  - string that will be displayed on line 1
//  364  *          line2  - string that will be displayed on line 2
//  365  *
//  366  * @return  None
//  367  **************************************************************************************************/

        RSEG BANKED_CODE:CODE:NOROOT(0)
//  368 void HalLcdWriteScreen( char *line1, char *line2 )
HalLcdWriteScreen:
        CFI Block cfiBlock4 Using cfiCommon0
        CFI Function HalLcdWriteScreen
        CODE
//  369 {
        FUNCALL HalLcdWriteScreen, HalLcdWriteString
        LOCFRAME ISTACK, 0, STACK
        LOCFRAME PSTACK, 0, STACK
        LOCFRAME XSTACK, 9, STACK
        LOCFRAME IOVERLAY, 0, STATIC
        LOCFRAME DOVERLAY, 0, STATIC
        ARGFRAME ISTACK, 0, STACK
        ARGFRAME PSTACK, 0, STACK
        ARGFRAME XSTACK, 9, STACK
        ARGFRAME IOVERLAY, 0, STATIC
        ARGFRAME DOVERLAY, 0, STATIC
        FUNCALL HalLcdWriteScreen, HalLcdWriteString
        LOCFRAME ISTACK, 0, STACK
        LOCFRAME PSTACK, 0, STACK
        LOCFRAME XSTACK, 9, STACK
        LOCFRAME IOVERLAY, 0, STATIC
        LOCFRAME DOVERLAY, 0, STATIC
        ARGFRAME ISTACK, 0, STACK
        ARGFRAME PSTACK, 0, STACK
        ARGFRAME XSTACK, 9, STACK
        ARGFRAME IOVERLAY, 0, STATIC
        ARGFRAME DOVERLAY, 0, STATIC
        MOV     A,#-0x9
        LCALL   ?BANKED_ENTER_XDATA
        CFI DPH0 load(1, XDATA, add(CFA_XSP16, literal(-1)))
        CFI DPL0 load(1, XDATA, add(CFA_XSP16, literal(-2)))
        CFI ?BRET_EXT load(1, XDATA, add(CFA_XSP16, literal(-3)))
        CFI ?RET_HIGH load(1, XDATA, add(CFA_XSP16, literal(-4)))
        CFI ?RET_LOW load(1, XDATA, add(CFA_XSP16, literal(-5)))
        CFI R7 load(1, XDATA, add(CFA_XSP16, literal(-6)))
        CFI V0 load(1, XDATA, add(CFA_XSP16, literal(-7)))
        CFI VB load(1, XDATA, add(CFA_XSP16, literal(-8)))
        CFI R6 load(1, XDATA, add(CFA_XSP16, literal(-9)))
        CFI CFA_SP SP+0
        CFI CFA_XSP16 add(XSP16, 9)
        ; Saved register size: 9
        ; Auto size: 0
        MOV     A,R4
        MOV     R6,A
        MOV     A,R5
        MOV     R7,A
//  370 #if (HAL_LCD == TRUE)
//  371   HalLcdWriteString( line1, 1 );
        ; Setup parameters for call to function HalLcdWriteString
        MOV     R1,#0x1
        LCALL   ??HalLcdWriteString?relay
//  372   HalLcdWriteString( line2, 2 );
        ; Setup parameters for call to function HalLcdWriteString
        MOV     R1,#0x2
        MOV     A,R6
        MOV     R2,A
        MOV     A,R7
        MOV     R3,A
        LCALL   ??HalLcdWriteString?relay
//  373 #endif
//  374 }
        LJMP    ?Subroutine1 & 0xFFFF
        CFI EndBlock cfiBlock4
//  375 
//  376 /**************************************************************************************************
//  377  * @fn      HalLcdWriteStringValue
//  378  *
//  379  * @brief   Write a string followed by a value to the LCD
//  380  *
//  381  * @param   title  - Title that will be displayed before the value
//  382  *          value  - value
//  383  *          format - redix
//  384  *          line   - line number
//  385  *
//  386  * @return  None
//  387  **************************************************************************************************/

        RSEG BANKED_CODE:CODE:NOROOT(0)
//  388 void HalLcdWriteStringValue( char *title, uint16 value, uint8 format, uint8 line )
HalLcdWriteStringValue:
        CFI Block cfiBlock5 Using cfiCommon0
        CFI Function HalLcdWriteStringValue
        CODE
//  389 {
        FUNCALL HalLcdWriteStringValue, osal_strlen
        LOCFRAME ISTACK, 0, STACK
        LOCFRAME PSTACK, 0, STACK
        LOCFRAME XSTACK, 43, STACK
        LOCFRAME IOVERLAY, 0, STATIC
        LOCFRAME DOVERLAY, 0, STATIC
        ARGFRAME ISTACK, 0, STACK
        ARGFRAME PSTACK, 0, STACK
        ARGFRAME XSTACK, 43, STACK
        ARGFRAME IOVERLAY, 0, STATIC
        ARGFRAME DOVERLAY, 0, STATIC
        FUNCALL HalLcdWriteStringValue, osal_memcpy
        LOCFRAME ISTACK, 0, STACK
        LOCFRAME PSTACK, 0, STACK
        LOCFRAME XSTACK, 46, STACK
        LOCFRAME IOVERLAY, 0, STATIC
        LOCFRAME DOVERLAY, 0, STATIC
        ARGFRAME ISTACK, 0, STACK
        ARGFRAME PSTACK, 0, STACK
        ARGFRAME XSTACK, 46, STACK
        ARGFRAME IOVERLAY, 0, STATIC
        ARGFRAME DOVERLAY, 0, STATIC
        FUNCALL HalLcdWriteStringValue, _ltoa
        LOCFRAME ISTACK, 0, STACK
        LOCFRAME PSTACK, 0, STACK
        LOCFRAME XSTACK, 45, STACK
        LOCFRAME IOVERLAY, 0, STATIC
        LOCFRAME DOVERLAY, 0, STATIC
        ARGFRAME ISTACK, 0, STACK
        ARGFRAME PSTACK, 0, STACK
        ARGFRAME XSTACK, 45, STACK
        ARGFRAME IOVERLAY, 0, STATIC
        ARGFRAME DOVERLAY, 0, STATIC
        FUNCALL HalLcdWriteStringValue, HalLcdWriteString
        LOCFRAME ISTACK, 0, STACK
        LOCFRAME PSTACK, 0, STACK
        LOCFRAME XSTACK, 43, STACK
        LOCFRAME IOVERLAY, 0, STATIC
        LOCFRAME DOVERLAY, 0, STATIC
        ARGFRAME ISTACK, 0, STACK
        ARGFRAME PSTACK, 0, STACK
        ARGFRAME XSTACK, 43, STACK
        ARGFRAME IOVERLAY, 0, STATIC
        ARGFRAME DOVERLAY, 0, STATIC
        MOV     A,#-0x12
        LCALL   ?BANKED_ENTER_XDATA
        CFI DPH0 load(1, XDATA, add(CFA_XSP16, literal(-1)))
        CFI DPL0 load(1, XDATA, add(CFA_XSP16, literal(-2)))
        CFI ?BRET_EXT load(1, XDATA, add(CFA_XSP16, literal(-3)))
        CFI ?RET_HIGH load(1, XDATA, add(CFA_XSP16, literal(-4)))
        CFI ?RET_LOW load(1, XDATA, add(CFA_XSP16, literal(-5)))
        CFI R7 load(1, XDATA, add(CFA_XSP16, literal(-6)))
        CFI V9 load(1, XDATA, add(CFA_XSP16, literal(-7)))
        CFI V8 load(1, XDATA, add(CFA_XSP16, literal(-8)))
        CFI V7 load(1, XDATA, add(CFA_XSP16, literal(-9)))
        CFI V6 load(1, XDATA, add(CFA_XSP16, literal(-10)))
        CFI V5 load(1, XDATA, add(CFA_XSP16, literal(-11)))
        CFI V4 load(1, XDATA, add(CFA_XSP16, literal(-12)))
        CFI V3 load(1, XDATA, add(CFA_XSP16, literal(-13)))
        CFI V2 load(1, XDATA, add(CFA_XSP16, literal(-14)))
        CFI V1 load(1, XDATA, add(CFA_XSP16, literal(-15)))
        CFI V0 load(1, XDATA, add(CFA_XSP16, literal(-16)))
        CFI VB load(1, XDATA, add(CFA_XSP16, literal(-17)))
        CFI R6 load(1, XDATA, add(CFA_XSP16, literal(-18)))
        CFI CFA_SP SP+0
        CFI CFA_XSP16 add(XSP16, 18)
        ; Saved register size: 18
        ; Auto size: 25
        MOV     A,#-0x19
        LCALL   ?ALLOC_XSTACK8
        CFI CFA_XSP16 add(XSP16, 43)
        MOV     A,R2
        MOV     R6,A
        MOV     A,R3
        MOV     R7,A
        MOV     ?V0 + 8,R4
        MOV     ?V0 + 9,R5
        MOV     ?V0 + 0,R1
        MOV     A,#0x2b
        LCALL   ?XSTACK_DISP0_8
        MOVX    A,@DPTR
        MOV     ?V0 + 1,A
//  390 #if (HAL_LCD == TRUE)
//  391   uint8 tmpLen;
//  392   uint8 buf[HAL_LCD_MAX_BUFF];
//  393   uint32 err;
//  394 
//  395   tmpLen = (uint8)osal_strlen( (char*)title );
        ; Setup parameters for call to function osal_strlen
        LCALL   ?Subroutine5 & 0xFFFF
//  396   osal_memcpy( buf, title, tmpLen );
??CrossCallReturnLabel_1:
        ; Setup parameters for call to function osal_memcpy
        MOV     ?V0 + 4,R6
        MOV     ?V0 + 5,R7
        MOV     ?V0 + 6,#0x0
        MOV     R0,#?V0 + 4
        LCALL   ?PUSH_XSTACK_I_THREE
        CFI CFA_XSP16 add(XSP16, 46)
        MOV     ?V0 + 4,R2
        MOV     R4,?V0 + 4
        MOV     R5,#0x0
        MOV     A,#0x3
        LCALL   ?XSTACK_DISP0_8
        LCALL   ?Subroutine3 & 0xFFFF
??CrossCallReturnLabel_10:
        LCALL   ?DEALLOC_XSTACK8
        CFI CFA_XSP16 add(XSP16, 43)
//  397   buf[tmpLen] = ' ';
        LCALL   ?Subroutine2 & 0xFFFF
//  398   err = (uint32)(value);
//  399   _ltoa( err, &buf[tmpLen+1], format );
??CrossCallReturnLabel_18:
        ; Setup parameters for call to function _ltoa
        INC     DPTR
        MOV     ?V0 + 2,DPL
        MOV     ?V0 + 3,DPH
        MOV     R0,#?V0 + 2
        LCALL   ?PUSH_XSTACK_I_TWO
        CFI CFA_XSP16 add(XSP16, 45)
        MOV     R1,?V0 + 0
        MOV     R2,?V0 + 8
        MOV     R3,?V0 + 9
        LCALL   ?Subroutine4 & 0xFFFF
??CrossCallReturnLabel_5:
        LCALL   ?DEALLOC_XSTACK8
        CFI CFA_XSP16 add(XSP16, 43)
//  400   HalLcdWriteString( (char*)buf, line );		
        ; Setup parameters for call to function HalLcdWriteString
        MOV     R1,?V0 + 1
        MOV     DPL,?XSP + 0
        MOV     DPH,?XSP + 1
        MOV     R2,DPL
        MOV     R3,DPH
        LCALL   ??HalLcdWriteString?relay
//  401 #endif
//  402 }
        MOV     A,#0x19
        LCALL   ?DEALLOC_XSTACK8
        CFI CFA_XSP16 add(XSP16, 18)
        MOV     R7,#0xa
        LJMP    ?BANKED_LEAVE_XDATA
        CFI EndBlock cfiBlock5

        RSEG BANKED_CODE:CODE:NOROOT(0)
?Subroutine5:
        CFI Block cfiCond6 Using cfiCommon0
        CFI NoFunction
        CFI Conditional ??CrossCallReturnLabel_0
        CFI R6 load(1, XDATA, add(CFA_XSP16, literal(-17)))
        CFI VB load(1, XDATA, add(CFA_XSP16, literal(-16)))
        CFI V0 load(1, XDATA, add(CFA_XSP16, literal(-15)))
        CFI V1 load(1, XDATA, add(CFA_XSP16, literal(-14)))
        CFI V2 load(1, XDATA, add(CFA_XSP16, literal(-13)))
        CFI V3 load(1, XDATA, add(CFA_XSP16, literal(-12)))
        CFI V4 load(1, XDATA, add(CFA_XSP16, literal(-11)))
        CFI V5 load(1, XDATA, add(CFA_XSP16, literal(-10)))
        CFI V6 load(1, XDATA, add(CFA_XSP16, literal(-9)))
        CFI V7 load(1, XDATA, add(CFA_XSP16, literal(-8)))
        CFI V8 load(1, XDATA, add(CFA_XSP16, literal(-7)))
        CFI R7 load(1, XDATA, add(CFA_XSP16, literal(-6)))
        CFI ?RET_LOW load(1, XDATA, add(CFA_XSP16, literal(-5)))
        CFI ?RET_HIGH load(1, XDATA, add(CFA_XSP16, literal(-4)))
        CFI ?BRET_EXT load(1, XDATA, add(CFA_XSP16, literal(-3)))
        CFI DPL0 load(1, XDATA, add(CFA_XSP16, literal(-2)))
        CFI DPH0 load(1, XDATA, add(CFA_XSP16, literal(-1)))
        CFI CFA_SP SP+0
        CFI CFA_XSP16 add(XSP16, 17)
        CFI Block cfiCond7 Using cfiCommon0
        CFI (cfiCond7) NoFunction
        CFI (cfiCond7) Conditional ??CrossCallReturnLabel_1
        CFI (cfiCond7) R6 load(1, XDATA, add(CFA_XSP16, literal(-18)))
        CFI (cfiCond7) VB load(1, XDATA, add(CFA_XSP16, literal(-17)))
        CFI (cfiCond7) V0 load(1, XDATA, add(CFA_XSP16, literal(-16)))
        CFI (cfiCond7) V1 load(1, XDATA, add(CFA_XSP16, literal(-15)))
        CFI (cfiCond7) V2 load(1, XDATA, add(CFA_XSP16, literal(-14)))
        CFI (cfiCond7) V3 load(1, XDATA, add(CFA_XSP16, literal(-13)))
        CFI (cfiCond7) V4 load(1, XDATA, add(CFA_XSP16, literal(-12)))
        CFI (cfiCond7) V5 load(1, XDATA, add(CFA_XSP16, literal(-11)))
        CFI (cfiCond7) V6 load(1, XDATA, add(CFA_XSP16, literal(-10)))
        CFI (cfiCond7) V7 load(1, XDATA, add(CFA_XSP16, literal(-9)))
        CFI (cfiCond7) V8 load(1, XDATA, add(CFA_XSP16, literal(-8)))
        CFI (cfiCond7) V9 load(1, XDATA, add(CFA_XSP16, literal(-7)))
        CFI (cfiCond7) R7 load(1, XDATA, add(CFA_XSP16, literal(-6)))
        CFI (cfiCond7) ?RET_LOW load(1, XDATA, add(CFA_XSP16, literal(-5)))
        CFI (cfiCond7) ?RET_HIGH load(1, XDATA, add(CFA_XSP16, literal(-4)))
        CFI (cfiCond7) ?BRET_EXT load(1, XDATA, add(CFA_XSP16, literal(-3)))
        CFI (cfiCond7) DPL0 load(1, XDATA, add(CFA_XSP16, literal(-2)))
        CFI (cfiCond7) DPH0 load(1, XDATA, add(CFA_XSP16, literal(-1)))
        CFI (cfiCond7) CFA_SP SP+0
        CFI (cfiCond7) CFA_XSP16 add(XSP16, 43)
        CFI Block cfiCond8 Using cfiCommon0
        CFI (cfiCond8) NoFunction
        CFI (cfiCond8) Conditional ??CrossCallReturnLabel_2
        CFI (cfiCond8) R6 load(1, XDATA, add(CFA_XSP16, literal(-11)))
        CFI (cfiCond8) VB load(1, XDATA, add(CFA_XSP16, literal(-10)))
        CFI (cfiCond8) V0 load(1, XDATA, add(CFA_XSP16, literal(-9)))
        CFI (cfiCond8) V1 load(1, XDATA, add(CFA_XSP16, literal(-8)))
        CFI (cfiCond8) V2 load(1, XDATA, add(CFA_XSP16, literal(-7)))
        CFI (cfiCond8) R7 load(1, XDATA, add(CFA_XSP16, literal(-6)))
        CFI (cfiCond8) ?RET_LOW load(1, XDATA, add(CFA_XSP16, literal(-5)))
        CFI (cfiCond8) ?RET_HIGH load(1, XDATA, add(CFA_XSP16, literal(-4)))
        CFI (cfiCond8) ?BRET_EXT load(1, XDATA, add(CFA_XSP16, literal(-3)))
        CFI (cfiCond8) DPL0 load(1, XDATA, add(CFA_XSP16, literal(-2)))
        CFI (cfiCond8) DPH0 load(1, XDATA, add(CFA_XSP16, literal(-1)))
        CFI (cfiCond8) CFA_SP SP+0
        CFI (cfiCond8) CFA_XSP16 add(XSP16, 11)
        CFI Block cfiPicker9 Using cfiCommon1
        CFI (cfiPicker9) NoFunction
        CFI (cfiPicker9) Picker
        LCALL   ??osal_strlen?relay
        MOV     A,R2
        MOV     ?V0 + 2,A
        RET
        CFI EndBlock cfiCond6
        CFI EndBlock cfiCond7
        CFI EndBlock cfiCond8
        CFI EndBlock cfiPicker9

        RSEG BANKED_CODE:CODE:NOROOT(0)
?Subroutine4:
        CFI Block cfiCond10 Using cfiCommon0
        CFI NoFunction
        CFI Conditional ??CrossCallReturnLabel_5
        CFI R6 load(1, XDATA, add(CFA_XSP16, literal(-18)))
        CFI VB load(1, XDATA, add(CFA_XSP16, literal(-17)))
        CFI V0 load(1, XDATA, add(CFA_XSP16, literal(-16)))
        CFI V1 load(1, XDATA, add(CFA_XSP16, literal(-15)))
        CFI V2 load(1, XDATA, add(CFA_XSP16, literal(-14)))
        CFI V3 load(1, XDATA, add(CFA_XSP16, literal(-13)))
        CFI V4 load(1, XDATA, add(CFA_XSP16, literal(-12)))
        CFI V5 load(1, XDATA, add(CFA_XSP16, literal(-11)))
        CFI V6 load(1, XDATA, add(CFA_XSP16, literal(-10)))
        CFI V7 load(1, XDATA, add(CFA_XSP16, literal(-9)))
        CFI V8 load(1, XDATA, add(CFA_XSP16, literal(-8)))
        CFI V9 load(1, XDATA, add(CFA_XSP16, literal(-7)))
        CFI R7 load(1, XDATA, add(CFA_XSP16, literal(-6)))
        CFI ?RET_LOW load(1, XDATA, add(CFA_XSP16, literal(-5)))
        CFI ?RET_HIGH load(1, XDATA, add(CFA_XSP16, literal(-4)))
        CFI ?BRET_EXT load(1, XDATA, add(CFA_XSP16, literal(-3)))
        CFI DPL0 load(1, XDATA, add(CFA_XSP16, literal(-2)))
        CFI DPH0 load(1, XDATA, add(CFA_XSP16, literal(-1)))
        CFI CFA_SP SP+0
        CFI CFA_XSP16 add(XSP16, 45)
        CFI Block cfiCond11 Using cfiCommon0
        CFI (cfiCond11) NoFunction
        CFI (cfiCond11) Conditional ??CrossCallReturnLabel_6
        CFI (cfiCond11) R6 load(1, XDATA, add(CFA_XSP16, literal(-19)))
        CFI (cfiCond11) VB load(1, XDATA, add(CFA_XSP16, literal(-18)))
        CFI (cfiCond11) V0 load(1, XDATA, add(CFA_XSP16, literal(-17)))
        CFI (cfiCond11) V1 load(1, XDATA, add(CFA_XSP16, literal(-16)))
        CFI (cfiCond11) V2 load(1, XDATA, add(CFA_XSP16, literal(-15)))
        CFI (cfiCond11) V3 load(1, XDATA, add(CFA_XSP16, literal(-14)))
        CFI (cfiCond11) V4 load(1, XDATA, add(CFA_XSP16, literal(-13)))
        CFI (cfiCond11) V5 load(1, XDATA, add(CFA_XSP16, literal(-12)))
        CFI (cfiCond11) V6 load(1, XDATA, add(CFA_XSP16, literal(-11)))
        CFI (cfiCond11) V7 load(1, XDATA, add(CFA_XSP16, literal(-10)))
        CFI (cfiCond11) V8 load(1, XDATA, add(CFA_XSP16, literal(-9)))
        CFI (cfiCond11) V9 load(1, XDATA, add(CFA_XSP16, literal(-8)))
        CFI (cfiCond11) V10 load(1, XDATA, add(CFA_XSP16, literal(-7)))
        CFI (cfiCond11) R7 load(1, XDATA, add(CFA_XSP16, literal(-6)))
        CFI (cfiCond11) ?RET_LOW load(1, XDATA, add(CFA_XSP16, literal(-5)))
        CFI (cfiCond11) ?RET_HIGH load(1, XDATA, add(CFA_XSP16, literal(-4)))
        CFI (cfiCond11) ?BRET_EXT load(1, XDATA, add(CFA_XSP16, literal(-3)))
        CFI (cfiCond11) DPL0 load(1, XDATA, add(CFA_XSP16, literal(-2)))
        CFI (cfiCond11) DPH0 load(1, XDATA, add(CFA_XSP16, literal(-1)))
        CFI (cfiCond11) CFA_SP SP+0
        CFI (cfiCond11) CFA_XSP16 add(XSP16, 46)
        CFI Block cfiCond12 Using cfiCommon0
        CFI (cfiCond12) NoFunction
        CFI (cfiCond12) Conditional ??CrossCallReturnLabel_7
        CFI (cfiCond12) R6 load(1, XDATA, add(CFA_XSP16, literal(-19)))
        CFI (cfiCond12) VB load(1, XDATA, add(CFA_XSP16, literal(-18)))
        CFI (cfiCond12) V0 load(1, XDATA, add(CFA_XSP16, literal(-17)))
        CFI (cfiCond12) V1 load(1, XDATA, add(CFA_XSP16, literal(-16)))
        CFI (cfiCond12) V2 load(1, XDATA, add(CFA_XSP16, literal(-15)))
        CFI (cfiCond12) V3 load(1, XDATA, add(CFA_XSP16, literal(-14)))
        CFI (cfiCond12) V4 load(1, XDATA, add(CFA_XSP16, literal(-13)))
        CFI (cfiCond12) V5 load(1, XDATA, add(CFA_XSP16, literal(-12)))
        CFI (cfiCond12) V6 load(1, XDATA, add(CFA_XSP16, literal(-11)))
        CFI (cfiCond12) V7 load(1, XDATA, add(CFA_XSP16, literal(-10)))
        CFI (cfiCond12) V8 load(1, XDATA, add(CFA_XSP16, literal(-9)))
        CFI (cfiCond12) V9 load(1, XDATA, add(CFA_XSP16, literal(-8)))
        CFI (cfiCond12) V10 load(1, XDATA, add(CFA_XSP16, literal(-7)))
        CFI (cfiCond12) R7 load(1, XDATA, add(CFA_XSP16, literal(-6)))
        CFI (cfiCond12) ?RET_LOW load(1, XDATA, add(CFA_XSP16, literal(-5)))
        CFI (cfiCond12) ?RET_HIGH load(1, XDATA, add(CFA_XSP16, literal(-4)))
        CFI (cfiCond12) ?BRET_EXT load(1, XDATA, add(CFA_XSP16, literal(-3)))
        CFI (cfiCond12) DPL0 load(1, XDATA, add(CFA_XSP16, literal(-2)))
        CFI (cfiCond12) DPH0 load(1, XDATA, add(CFA_XSP16, literal(-1)))
        CFI (cfiCond12) CFA_SP SP+0
        CFI (cfiCond12) CFA_XSP16 add(XSP16, 46)
        CFI Block cfiPicker13 Using cfiCommon1
        CFI (cfiPicker13) NoFunction
        CFI (cfiPicker13) Picker
        CLR     A
        CFI EndBlock cfiCond10
        CFI EndBlock cfiCond11
        CFI EndBlock cfiCond12
        CFI EndBlock cfiPicker13
        REQUIRE ??Subroutine8_0
        ; // Fall through to label ??Subroutine8_0

        RSEG BANKED_CODE:CODE:NOROOT(0)
??Subroutine8_0:
        CFI Block cfiCond14 Using cfiCommon0
        CFI NoFunction
        CFI Conditional ??CrossCallReturnLabel_8
        CFI R6 load(1, XDATA, add(CFA_XSP16, literal(-12)))
        CFI VB load(1, XDATA, add(CFA_XSP16, literal(-11)))
        CFI V0 load(1, XDATA, add(CFA_XSP16, literal(-10)))
        CFI V1 load(1, XDATA, add(CFA_XSP16, literal(-9)))
        CFI V2 load(1, XDATA, add(CFA_XSP16, literal(-8)))
        CFI V3 load(1, XDATA, add(CFA_XSP16, literal(-7)))
        CFI R7 load(1, XDATA, add(CFA_XSP16, literal(-6)))
        CFI ?RET_LOW load(1, XDATA, add(CFA_XSP16, literal(-5)))
        CFI ?RET_HIGH load(1, XDATA, add(CFA_XSP16, literal(-4)))
        CFI ?BRET_EXT load(1, XDATA, add(CFA_XSP16, literal(-3)))
        CFI DPL0 load(1, XDATA, add(CFA_XSP16, literal(-2)))
        CFI DPH0 load(1, XDATA, add(CFA_XSP16, literal(-1)))
        CFI CFA_SP SP+0
        CFI CFA_XSP16 add(XSP16, 31)
        CFI Block cfiCond15 Using cfiCommon0
        CFI (cfiCond15) NoFunction
        CFI (cfiCond15) Conditional ??CrossCallReturnLabel_5
        CFI (cfiCond15) R6 load(1, XDATA, add(CFA_XSP16, literal(-18)))
        CFI (cfiCond15) VB load(1, XDATA, add(CFA_XSP16, literal(-17)))
        CFI (cfiCond15) V0 load(1, XDATA, add(CFA_XSP16, literal(-16)))
        CFI (cfiCond15) V1 load(1, XDATA, add(CFA_XSP16, literal(-15)))
        CFI (cfiCond15) V2 load(1, XDATA, add(CFA_XSP16, literal(-14)))
        CFI (cfiCond15) V3 load(1, XDATA, add(CFA_XSP16, literal(-13)))
        CFI (cfiCond15) V4 load(1, XDATA, add(CFA_XSP16, literal(-12)))
        CFI (cfiCond15) V5 load(1, XDATA, add(CFA_XSP16, literal(-11)))
        CFI (cfiCond15) V6 load(1, XDATA, add(CFA_XSP16, literal(-10)))
        CFI (cfiCond15) V7 load(1, XDATA, add(CFA_XSP16, literal(-9)))
        CFI (cfiCond15) V8 load(1, XDATA, add(CFA_XSP16, literal(-8)))
        CFI (cfiCond15) V9 load(1, XDATA, add(CFA_XSP16, literal(-7)))
        CFI (cfiCond15) R7 load(1, XDATA, add(CFA_XSP16, literal(-6)))
        CFI (cfiCond15) ?RET_LOW load(1, XDATA, add(CFA_XSP16, literal(-5)))
        CFI (cfiCond15) ?RET_HIGH load(1, XDATA, add(CFA_XSP16, literal(-4)))
        CFI (cfiCond15) ?BRET_EXT load(1, XDATA, add(CFA_XSP16, literal(-3)))
        CFI (cfiCond15) DPL0 load(1, XDATA, add(CFA_XSP16, literal(-2)))
        CFI (cfiCond15) DPH0 load(1, XDATA, add(CFA_XSP16, literal(-1)))
        CFI (cfiCond15) CFA_SP SP+0
        CFI (cfiCond15) CFA_XSP16 add(XSP16, 45)
        CFI Block cfiCond16 Using cfiCommon0
        CFI (cfiCond16) NoFunction
        CFI (cfiCond16) Conditional ??CrossCallReturnLabel_6
        CFI (cfiCond16) R6 load(1, XDATA, add(CFA_XSP16, literal(-19)))
        CFI (cfiCond16) VB load(1, XDATA, add(CFA_XSP16, literal(-18)))
        CFI (cfiCond16) V0 load(1, XDATA, add(CFA_XSP16, literal(-17)))
        CFI (cfiCond16) V1 load(1, XDATA, add(CFA_XSP16, literal(-16)))
        CFI (cfiCond16) V2 load(1, XDATA, add(CFA_XSP16, literal(-15)))
        CFI (cfiCond16) V3 load(1, XDATA, add(CFA_XSP16, literal(-14)))
        CFI (cfiCond16) V4 load(1, XDATA, add(CFA_XSP16, literal(-13)))
        CFI (cfiCond16) V5 load(1, XDATA, add(CFA_XSP16, literal(-12)))
        CFI (cfiCond16) V6 load(1, XDATA, add(CFA_XSP16, literal(-11)))
        CFI (cfiCond16) V7 load(1, XDATA, add(CFA_XSP16, literal(-10)))
        CFI (cfiCond16) V8 load(1, XDATA, add(CFA_XSP16, literal(-9)))
        CFI (cfiCond16) V9 load(1, XDATA, add(CFA_XSP16, literal(-8)))
        CFI (cfiCond16) V10 load(1, XDATA, add(CFA_XSP16, literal(-7)))
        CFI (cfiCond16) R7 load(1, XDATA, add(CFA_XSP16, literal(-6)))
        CFI (cfiCond16) ?RET_LOW load(1, XDATA, add(CFA_XSP16, literal(-5)))
        CFI (cfiCond16) ?RET_HIGH load(1, XDATA, add(CFA_XSP16, literal(-4)))
        CFI (cfiCond16) ?BRET_EXT load(1, XDATA, add(CFA_XSP16, literal(-3)))
        CFI (cfiCond16) DPL0 load(1, XDATA, add(CFA_XSP16, literal(-2)))
        CFI (cfiCond16) DPH0 load(1, XDATA, add(CFA_XSP16, literal(-1)))
        CFI (cfiCond16) CFA_SP SP+0
        CFI (cfiCond16) CFA_XSP16 add(XSP16, 46)
        CFI Block cfiCond17 Using cfiCommon0
        CFI (cfiCond17) NoFunction
        CFI (cfiCond17) Conditional ??CrossCallReturnLabel_7
        CFI (cfiCond17) R6 load(1, XDATA, add(CFA_XSP16, literal(-19)))
        CFI (cfiCond17) VB load(1, XDATA, add(CFA_XSP16, literal(-18)))
        CFI (cfiCond17) V0 load(1, XDATA, add(CFA_XSP16, literal(-17)))
        CFI (cfiCond17) V1 load(1, XDATA, add(CFA_XSP16, literal(-16)))
        CFI (cfiCond17) V2 load(1, XDATA, add(CFA_XSP16, literal(-15)))
        CFI (cfiCond17) V3 load(1, XDATA, add(CFA_XSP16, literal(-14)))
        CFI (cfiCond17) V4 load(1, XDATA, add(CFA_XSP16, literal(-13)))
        CFI (cfiCond17) V5 load(1, XDATA, add(CFA_XSP16, literal(-12)))
        CFI (cfiCond17) V6 load(1, XDATA, add(CFA_XSP16, literal(-11)))
        CFI (cfiCond17) V7 load(1, XDATA, add(CFA_XSP16, literal(-10)))
        CFI (cfiCond17) V8 load(1, XDATA, add(CFA_XSP16, literal(-9)))
        CFI (cfiCond17) V9 load(1, XDATA, add(CFA_XSP16, literal(-8)))
        CFI (cfiCond17) V10 load(1, XDATA, add(CFA_XSP16, literal(-7)))
        CFI (cfiCond17) R7 load(1, XDATA, add(CFA_XSP16, literal(-6)))
        CFI (cfiCond17) ?RET_LOW load(1, XDATA, add(CFA_XSP16, literal(-5)))
        CFI (cfiCond17) ?RET_HIGH load(1, XDATA, add(CFA_XSP16, literal(-4)))
        CFI (cfiCond17) ?BRET_EXT load(1, XDATA, add(CFA_XSP16, literal(-3)))
        CFI (cfiCond17) DPL0 load(1, XDATA, add(CFA_XSP16, literal(-2)))
        CFI (cfiCond17) DPH0 load(1, XDATA, add(CFA_XSP16, literal(-1)))
        CFI (cfiCond17) CFA_SP SP+0
        CFI (cfiCond17) CFA_XSP16 add(XSP16, 46)
        CFI Block cfiPicker18 Using cfiCommon1
        CFI (cfiPicker18) NoFunction
        CFI (cfiPicker18) Picker
        MOV     R4,A
        MOV     R5,A
        CFI EndBlock cfiCond14
        CFI EndBlock cfiCond15
        CFI EndBlock cfiCond16
        CFI EndBlock cfiCond17
        CFI EndBlock cfiPicker18
        REQUIRE ??Subroutine9_0
        ; // Fall through to label ??Subroutine9_0

        RSEG BANKED_CODE:CODE:NOROOT(0)
??Subroutine9_0:
        CFI Block cfiCond19 Using cfiCommon0
        CFI NoFunction
        CFI Conditional ??CrossCallReturnLabel_9
        CFI R6 load(1, XDATA, add(CFA_XSP16, literal(-16)))
        CFI VB load(1, XDATA, add(CFA_XSP16, literal(-15)))
        CFI V0 load(1, XDATA, add(CFA_XSP16, literal(-14)))
        CFI V1 load(1, XDATA, add(CFA_XSP16, literal(-13)))
        CFI V2 load(1, XDATA, add(CFA_XSP16, literal(-12)))
        CFI V3 load(1, XDATA, add(CFA_XSP16, literal(-11)))
        CFI V4 load(1, XDATA, add(CFA_XSP16, literal(-10)))
        CFI V5 load(1, XDATA, add(CFA_XSP16, literal(-9)))
        CFI V6 load(1, XDATA, add(CFA_XSP16, literal(-8)))
        CFI V7 load(1, XDATA, add(CFA_XSP16, literal(-7)))
        CFI R7 load(1, XDATA, add(CFA_XSP16, literal(-6)))
        CFI ?RET_LOW load(1, XDATA, add(CFA_XSP16, literal(-5)))
        CFI ?RET_HIGH load(1, XDATA, add(CFA_XSP16, literal(-4)))
        CFI ?BRET_EXT load(1, XDATA, add(CFA_XSP16, literal(-3)))
        CFI DPL0 load(1, XDATA, add(CFA_XSP16, literal(-2)))
        CFI DPH0 load(1, XDATA, add(CFA_XSP16, literal(-1)))
        CFI CFA_SP SP+0
        CFI CFA_XSP16 add(XSP16, 43)
        CFI Block cfiCond20 Using cfiCommon0
        CFI (cfiCond20) NoFunction
        CFI (cfiCond20) Conditional ??CrossCallReturnLabel_8
        CFI (cfiCond20) R6 load(1, XDATA, add(CFA_XSP16, literal(-12)))
        CFI (cfiCond20) VB load(1, XDATA, add(CFA_XSP16, literal(-11)))
        CFI (cfiCond20) V0 load(1, XDATA, add(CFA_XSP16, literal(-10)))
        CFI (cfiCond20) V1 load(1, XDATA, add(CFA_XSP16, literal(-9)))
        CFI (cfiCond20) V2 load(1, XDATA, add(CFA_XSP16, literal(-8)))
        CFI (cfiCond20) V3 load(1, XDATA, add(CFA_XSP16, literal(-7)))
        CFI (cfiCond20) R7 load(1, XDATA, add(CFA_XSP16, literal(-6)))
        CFI (cfiCond20) ?RET_LOW load(1, XDATA, add(CFA_XSP16, literal(-5)))
        CFI (cfiCond20) ?RET_HIGH load(1, XDATA, add(CFA_XSP16, literal(-4)))
        CFI (cfiCond20) ?BRET_EXT load(1, XDATA, add(CFA_XSP16, literal(-3)))
        CFI (cfiCond20) DPL0 load(1, XDATA, add(CFA_XSP16, literal(-2)))
        CFI (cfiCond20) DPH0 load(1, XDATA, add(CFA_XSP16, literal(-1)))
        CFI (cfiCond20) CFA_SP SP+0
        CFI (cfiCond20) CFA_XSP16 add(XSP16, 31)
        CFI Block cfiCond21 Using cfiCommon0
        CFI (cfiCond21) NoFunction
        CFI (cfiCond21) Conditional ??CrossCallReturnLabel_5
        CFI (cfiCond21) R6 load(1, XDATA, add(CFA_XSP16, literal(-18)))
        CFI (cfiCond21) VB load(1, XDATA, add(CFA_XSP16, literal(-17)))
        CFI (cfiCond21) V0 load(1, XDATA, add(CFA_XSP16, literal(-16)))
        CFI (cfiCond21) V1 load(1, XDATA, add(CFA_XSP16, literal(-15)))
        CFI (cfiCond21) V2 load(1, XDATA, add(CFA_XSP16, literal(-14)))
        CFI (cfiCond21) V3 load(1, XDATA, add(CFA_XSP16, literal(-13)))
        CFI (cfiCond21) V4 load(1, XDATA, add(CFA_XSP16, literal(-12)))
        CFI (cfiCond21) V5 load(1, XDATA, add(CFA_XSP16, literal(-11)))
        CFI (cfiCond21) V6 load(1, XDATA, add(CFA_XSP16, literal(-10)))
        CFI (cfiCond21) V7 load(1, XDATA, add(CFA_XSP16, literal(-9)))
        CFI (cfiCond21) V8 load(1, XDATA, add(CFA_XSP16, literal(-8)))
        CFI (cfiCond21) V9 load(1, XDATA, add(CFA_XSP16, literal(-7)))
        CFI (cfiCond21) R7 load(1, XDATA, add(CFA_XSP16, literal(-6)))
        CFI (cfiCond21) ?RET_LOW load(1, XDATA, add(CFA_XSP16, literal(-5)))
        CFI (cfiCond21) ?RET_HIGH load(1, XDATA, add(CFA_XSP16, literal(-4)))
        CFI (cfiCond21) ?BRET_EXT load(1, XDATA, add(CFA_XSP16, literal(-3)))
        CFI (cfiCond21) DPL0 load(1, XDATA, add(CFA_XSP16, literal(-2)))
        CFI (cfiCond21) DPH0 load(1, XDATA, add(CFA_XSP16, literal(-1)))
        CFI (cfiCond21) CFA_SP SP+0
        CFI (cfiCond21) CFA_XSP16 add(XSP16, 45)
        CFI Block cfiCond22 Using cfiCommon0
        CFI (cfiCond22) NoFunction
        CFI (cfiCond22) Conditional ??CrossCallReturnLabel_6
        CFI (cfiCond22) R6 load(1, XDATA, add(CFA_XSP16, literal(-19)))
        CFI (cfiCond22) VB load(1, XDATA, add(CFA_XSP16, literal(-18)))
        CFI (cfiCond22) V0 load(1, XDATA, add(CFA_XSP16, literal(-17)))
        CFI (cfiCond22) V1 load(1, XDATA, add(CFA_XSP16, literal(-16)))
        CFI (cfiCond22) V2 load(1, XDATA, add(CFA_XSP16, literal(-15)))
        CFI (cfiCond22) V3 load(1, XDATA, add(CFA_XSP16, literal(-14)))
        CFI (cfiCond22) V4 load(1, XDATA, add(CFA_XSP16, literal(-13)))
        CFI (cfiCond22) V5 load(1, XDATA, add(CFA_XSP16, literal(-12)))
        CFI (cfiCond22) V6 load(1, XDATA, add(CFA_XSP16, literal(-11)))
        CFI (cfiCond22) V7 load(1, XDATA, add(CFA_XSP16, literal(-10)))
        CFI (cfiCond22) V8 load(1, XDATA, add(CFA_XSP16, literal(-9)))
        CFI (cfiCond22) V9 load(1, XDATA, add(CFA_XSP16, literal(-8)))
        CFI (cfiCond22) V10 load(1, XDATA, add(CFA_XSP16, literal(-7)))
        CFI (cfiCond22) R7 load(1, XDATA, add(CFA_XSP16, literal(-6)))
        CFI (cfiCond22) ?RET_LOW load(1, XDATA, add(CFA_XSP16, literal(-5)))
        CFI (cfiCond22) ?RET_HIGH load(1, XDATA, add(CFA_XSP16, literal(-4)))
        CFI (cfiCond22) ?BRET_EXT load(1, XDATA, add(CFA_XSP16, literal(-3)))
        CFI (cfiCond22) DPL0 load(1, XDATA, add(CFA_XSP16, literal(-2)))
        CFI (cfiCond22) DPH0 load(1, XDATA, add(CFA_XSP16, literal(-1)))
        CFI (cfiCond22) CFA_SP SP+0
        CFI (cfiCond22) CFA_XSP16 add(XSP16, 46)
        CFI Block cfiCond23 Using cfiCommon0
        CFI (cfiCond23) NoFunction
        CFI (cfiCond23) Conditional ??CrossCallReturnLabel_7
        CFI (cfiCond23) R6 load(1, XDATA, add(CFA_XSP16, literal(-19)))
        CFI (cfiCond23) VB load(1, XDATA, add(CFA_XSP16, literal(-18)))
        CFI (cfiCond23) V0 load(1, XDATA, add(CFA_XSP16, literal(-17)))
        CFI (cfiCond23) V1 load(1, XDATA, add(CFA_XSP16, literal(-16)))
        CFI (cfiCond23) V2 load(1, XDATA, add(CFA_XSP16, literal(-15)))
        CFI (cfiCond23) V3 load(1, XDATA, add(CFA_XSP16, literal(-14)))
        CFI (cfiCond23) V4 load(1, XDATA, add(CFA_XSP16, literal(-13)))
        CFI (cfiCond23) V5 load(1, XDATA, add(CFA_XSP16, literal(-12)))
        CFI (cfiCond23) V6 load(1, XDATA, add(CFA_XSP16, literal(-11)))
        CFI (cfiCond23) V7 load(1, XDATA, add(CFA_XSP16, literal(-10)))
        CFI (cfiCond23) V8 load(1, XDATA, add(CFA_XSP16, literal(-9)))
        CFI (cfiCond23) V9 load(1, XDATA, add(CFA_XSP16, literal(-8)))
        CFI (cfiCond23) V10 load(1, XDATA, add(CFA_XSP16, literal(-7)))
        CFI (cfiCond23) R7 load(1, XDATA, add(CFA_XSP16, literal(-6)))
        CFI (cfiCond23) ?RET_LOW load(1, XDATA, add(CFA_XSP16, literal(-5)))
        CFI (cfiCond23) ?RET_HIGH load(1, XDATA, add(CFA_XSP16, literal(-4)))
        CFI (cfiCond23) ?BRET_EXT load(1, XDATA, add(CFA_XSP16, literal(-3)))
        CFI (cfiCond23) DPL0 load(1, XDATA, add(CFA_XSP16, literal(-2)))
        CFI (cfiCond23) DPH0 load(1, XDATA, add(CFA_XSP16, literal(-1)))
        CFI (cfiCond23) CFA_SP SP+0
        CFI (cfiCond23) CFA_XSP16 add(XSP16, 46)
        CFI Block cfiPicker24 Using cfiCommon1
        CFI (cfiPicker24) NoFunction
        CFI (cfiPicker24) Picker
        LCALL   ??_ltoa?relay
        MOV     A,#0x2
        RET
        CFI EndBlock cfiCond19
        CFI EndBlock cfiCond20
        CFI EndBlock cfiCond21
        CFI EndBlock cfiCond22
        CFI EndBlock cfiCond23
        CFI EndBlock cfiPicker24
//  403 
//  404 /**************************************************************************************************
//  405  * @fn      HalLcdWriteStringValue
//  406  *
//  407  * @brief   Write a string followed by a value to the LCD
//  408  *
//  409  * @param   title   - Title that will be displayed before the value
//  410  *          value1  - value #1
//  411  *          format1 - redix of value #1
//  412  *          value2  - value #2
//  413  *          format2 - redix of value #2
//  414  *          line    - line number
//  415  *
//  416  * @return  None
//  417  **************************************************************************************************/

        RSEG BANKED_CODE:CODE:NOROOT(0)
//  418 void HalLcdWriteStringValueValue( char *title, uint16 value1, uint8 format1,
HalLcdWriteStringValueValue:
        CFI Block cfiBlock25 Using cfiCommon0
        CFI Function HalLcdWriteStringValueValue
        CODE
//  419                                   uint16 value2, uint8 format2, uint8 line )
//  420 {
        FUNCALL HalLcdWriteStringValueValue, osal_strlen
        LOCFRAME ISTACK, 0, STACK
        LOCFRAME PSTACK, 0, STACK
        LOCFRAME XSTACK, 44, STACK
        LOCFRAME IOVERLAY, 0, STATIC
        LOCFRAME DOVERLAY, 0, STATIC
        ARGFRAME ISTACK, 0, STACK
        ARGFRAME PSTACK, 0, STACK
        ARGFRAME XSTACK, 44, STACK
        ARGFRAME IOVERLAY, 0, STATIC
        ARGFRAME DOVERLAY, 0, STATIC
        FUNCALL HalLcdWriteStringValueValue, osal_memcpy
        LOCFRAME ISTACK, 0, STACK
        LOCFRAME PSTACK, 0, STACK
        LOCFRAME XSTACK, 47, STACK
        LOCFRAME IOVERLAY, 0, STATIC
        LOCFRAME DOVERLAY, 0, STATIC
        ARGFRAME ISTACK, 0, STACK
        ARGFRAME PSTACK, 0, STACK
        ARGFRAME XSTACK, 47, STACK
        ARGFRAME IOVERLAY, 0, STATIC
        ARGFRAME DOVERLAY, 0, STATIC
        FUNCALL HalLcdWriteStringValueValue, _ltoa
        LOCFRAME ISTACK, 0, STACK
        LOCFRAME PSTACK, 0, STACK
        LOCFRAME XSTACK, 46, STACK
        LOCFRAME IOVERLAY, 0, STATIC
        LOCFRAME DOVERLAY, 0, STATIC
        ARGFRAME ISTACK, 0, STACK
        ARGFRAME PSTACK, 0, STACK
        ARGFRAME XSTACK, 46, STACK
        ARGFRAME IOVERLAY, 0, STATIC
        ARGFRAME DOVERLAY, 0, STATIC
        FUNCALL HalLcdWriteStringValueValue, osal_strlen
        LOCFRAME ISTACK, 0, STACK
        LOCFRAME PSTACK, 0, STACK
        LOCFRAME XSTACK, 44, STACK
        LOCFRAME IOVERLAY, 0, STATIC
        LOCFRAME DOVERLAY, 0, STATIC
        ARGFRAME ISTACK, 0, STACK
        ARGFRAME PSTACK, 0, STACK
        ARGFRAME XSTACK, 44, STACK
        ARGFRAME IOVERLAY, 0, STATIC
        ARGFRAME DOVERLAY, 0, STATIC
        FUNCALL HalLcdWriteStringValueValue, _ltoa
        LOCFRAME ISTACK, 0, STACK
        LOCFRAME PSTACK, 0, STACK
        LOCFRAME XSTACK, 46, STACK
        LOCFRAME IOVERLAY, 0, STATIC
        LOCFRAME DOVERLAY, 0, STATIC
        ARGFRAME ISTACK, 0, STACK
        ARGFRAME PSTACK, 0, STACK
        ARGFRAME XSTACK, 46, STACK
        ARGFRAME IOVERLAY, 0, STATIC
        ARGFRAME DOVERLAY, 0, STATIC
        FUNCALL HalLcdWriteStringValueValue, HalLcdWriteString
        LOCFRAME ISTACK, 0, STACK
        LOCFRAME PSTACK, 0, STACK
        LOCFRAME XSTACK, 44, STACK
        LOCFRAME IOVERLAY, 0, STATIC
        LOCFRAME DOVERLAY, 0, STATIC
        ARGFRAME ISTACK, 0, STACK
        ARGFRAME PSTACK, 0, STACK
        ARGFRAME XSTACK, 44, STACK
        ARGFRAME IOVERLAY, 0, STATIC
        ARGFRAME DOVERLAY, 0, STATIC
        MOV     A,#-0x13
        LCALL   ?BANKED_ENTER_XDATA
        CFI DPH0 load(1, XDATA, add(CFA_XSP16, literal(-1)))
        CFI DPL0 load(1, XDATA, add(CFA_XSP16, literal(-2)))
        CFI ?BRET_EXT load(1, XDATA, add(CFA_XSP16, literal(-3)))
        CFI ?RET_HIGH load(1, XDATA, add(CFA_XSP16, literal(-4)))
        CFI ?RET_LOW load(1, XDATA, add(CFA_XSP16, literal(-5)))
        CFI R7 load(1, XDATA, add(CFA_XSP16, literal(-6)))
        CFI V10 load(1, XDATA, add(CFA_XSP16, literal(-7)))
        CFI V9 load(1, XDATA, add(CFA_XSP16, literal(-8)))
        CFI V8 load(1, XDATA, add(CFA_XSP16, literal(-9)))
        CFI V7 load(1, XDATA, add(CFA_XSP16, literal(-10)))
        CFI V6 load(1, XDATA, add(CFA_XSP16, literal(-11)))
        CFI V5 load(1, XDATA, add(CFA_XSP16, literal(-12)))
        CFI V4 load(1, XDATA, add(CFA_XSP16, literal(-13)))
        CFI V3 load(1, XDATA, add(CFA_XSP16, literal(-14)))
        CFI V2 load(1, XDATA, add(CFA_XSP16, literal(-15)))
        CFI V1 load(1, XDATA, add(CFA_XSP16, literal(-16)))
        CFI V0 load(1, XDATA, add(CFA_XSP16, literal(-17)))
        CFI VB load(1, XDATA, add(CFA_XSP16, literal(-18)))
        CFI R6 load(1, XDATA, add(CFA_XSP16, literal(-19)))
        CFI CFA_SP SP+0
        CFI CFA_XSP16 add(XSP16, 19)
        ; Saved register size: 19
        ; Auto size: 25
        MOV     A,#-0x19
        LCALL   ?ALLOC_XSTACK8
        CFI CFA_XSP16 add(XSP16, 44)
        MOV     A,R2
        MOV     R6,A
        MOV     A,R3
        MOV     R7,A
        MOV     ?V0 + 2,R4
        MOV     ?V0 + 3,R5
        MOV     ?V0 + 5,R1
        MOV     A,#0x2c
        LCALL   ?XSTACK_DISP0_8
        MOVX    A,@DPTR
        MOV     ?V0 + 0,A
        INC     DPTR
        MOVX    A,@DPTR
        MOV     ?V0 + 1,A
        MOV     A,#0x2e
        LCALL   ?XSTACK_DISP0_8
        MOVX    A,@DPTR
        MOV     ?V0 + 4,A
        MOV     A,#0x2f
        LCALL   ?XSTACK_DISP0_8
        MOVX    A,@DPTR
        MOV     ?V0 + 7,A
//  421 
//  422 #if (HAL_LCD == TRUE)
//  423 
//  424   uint8 tmpLen;
//  425   uint8 buf[HAL_LCD_MAX_BUFF];
//  426   uint32 err;
//  427 
//  428   tmpLen = (uint8)osal_strlen( (char*)title );
        ; Setup parameters for call to function osal_strlen
        LCALL   ??osal_strlen?relay
        MOV     A,R2
        MOV     ?V0 + 6,A
//  429   if ( tmpLen )
        JZ      ??HalLcdWriteStringValueValue_0
//  430   {
//  431     osal_memcpy( buf, title, tmpLen );
        ; Setup parameters for call to function osal_memcpy
        MOV     ?V0 + 8,R6
        MOV     ?V0 + 9,R7
        MOV     ?V0 + 10,#0x0
        MOV     R0,#?V0 + 8
        LCALL   ?PUSH_XSTACK_I_THREE
        CFI CFA_XSP16 add(XSP16, 47)
        MOV     ?V0 + 8,R2
        MOV     R4,?V0 + 8
        MOV     R5,#0x0
        MOV     A,#0x3
        LCALL   ?XSTACK_DISP0_8
        LCALL   ?Subroutine3 & 0xFFFF
??CrossCallReturnLabel_11:
        LCALL   ?DEALLOC_XSTACK8
        CFI CFA_XSP16 add(XSP16, 44)
//  432     buf[tmpLen++] = ' ';
        MOV     DPL,?XSP + 0
        MOV     DPH,?XSP + 1
        MOV     A,DPL
        ADD     A,?V0 + 8
        LCALL   ??Subroutine11_0 & 0xFFFF
//  433   }
??CrossCallReturnLabel_17:
        INC     ?V0 + 6
//  434 
//  435   err = (uint32)(value1);
//  436   _ltoa( err, &buf[tmpLen], format1 );
??HalLcdWriteStringValueValue_0:
        ; Setup parameters for call to function _ltoa
        MOV     ?V0 + 8,?V0 + 6
        MOV     DPL,?XSP + 0
        MOV     DPH,?XSP + 1
        MOV     A,DPL
        ADD     A,?V0 + 8
        MOV     ?V0 + 8,A
        MOV     A,DPH
        ADDC    A,#0x0
        MOV     ?V0 + 9,A
        MOV     R0,#?V0 + 8
        LCALL   ?PUSH_XSTACK_I_TWO
        CFI CFA_XSP16 add(XSP16, 46)
        MOV     R1,?V0 + 5
        MOV     R2,?V0 + 2
        MOV     R3,?V0 + 3
        LCALL   ?Subroutine4 & 0xFFFF
??CrossCallReturnLabel_6:
        LCALL   ?DEALLOC_XSTACK8
        CFI CFA_XSP16 add(XSP16, 44)
//  437   tmpLen = (uint8)osal_strlen( (char*)buf );
        ; Setup parameters for call to function osal_strlen
        MOV     DPL,?XSP + 0
        MOV     DPH,?XSP + 1
        MOV     R2,DPL
        MOV     R3,DPH
        LCALL   ??osal_strlen?relay
        MOV     A,R2
        MOV     ?V0 + 6,A
//  438 
//  439   buf[tmpLen++] = ',';
        MOV     ?V0 + 2,A
        MOV     DPL,?XSP + 0
        MOV     DPH,?XSP + 1
        MOV     A,DPL
        ADD     A,?V0 + 2
        MOV     DPL,A
        MOV     A,DPH
        ADDC    A,#0x0
        MOV     DPH,A
        MOV     A,#0x2c
        MOVX    @DPTR,A
        INC     ?V0 + 6
//  440   buf[tmpLen++] = ' ';
        MOV     ?V0 + 2,?V0 + 6
        LCALL   ?Subroutine2 & 0xFFFF
//  441   err = (uint32)(value2);
//  442   _ltoa( err, &buf[tmpLen], format2 );
??CrossCallReturnLabel_19:
        ; Setup parameters for call to function _ltoa
        MOV     A,#0x1
        ADD     A,?V0 + 6
        MOV     R0,A
        MOV     DPL,?XSP + 0
        MOV     DPH,?XSP + 1
        MOV     A,DPL
        ADD     A,R0
        MOV     ?V0 + 2,A
        MOV     A,DPH
        ADDC    A,#0x0
        MOV     ?V0 + 3,A
        MOV     R0,#?V0 + 2
        LCALL   ?PUSH_XSTACK_I_TWO
        CFI CFA_XSP16 add(XSP16, 46)
        MOV     R1,?V0 + 4
        MOV     R2,?V0 + 0
        MOV     R3,?V0 + 1
        LCALL   ?Subroutine4 & 0xFFFF
??CrossCallReturnLabel_7:
        LCALL   ?DEALLOC_XSTACK8
        CFI CFA_XSP16 add(XSP16, 44)
//  443 
//  444   HalLcdWriteString( (char *)buf, line );		
        ; Setup parameters for call to function HalLcdWriteString
        MOV     R1,?V0 + 7
        MOV     DPL,?XSP + 0
        MOV     DPH,?XSP + 1
        MOV     R2,DPL
        MOV     R3,DPH
        LCALL   ??HalLcdWriteString?relay
//  445 
//  446 #endif
//  447 }
        MOV     A,#0x19
        LCALL   ?DEALLOC_XSTACK8
        CFI CFA_XSP16 add(XSP16, 19)
        MOV     R7,#0xb
        LJMP    ?BANKED_LEAVE_XDATA
        CFI EndBlock cfiBlock25

        RSEG BANKED_CODE:CODE:NOROOT(0)
?Subroutine3:
        CFI Block cfiCond26 Using cfiCommon0
        CFI NoFunction
        CFI Conditional ??CrossCallReturnLabel_10
        CFI R6 load(1, XDATA, add(CFA_XSP16, literal(-18)))
        CFI VB load(1, XDATA, add(CFA_XSP16, literal(-17)))
        CFI V0 load(1, XDATA, add(CFA_XSP16, literal(-16)))
        CFI V1 load(1, XDATA, add(CFA_XSP16, literal(-15)))
        CFI V2 load(1, XDATA, add(CFA_XSP16, literal(-14)))
        CFI V3 load(1, XDATA, add(CFA_XSP16, literal(-13)))
        CFI V4 load(1, XDATA, add(CFA_XSP16, literal(-12)))
        CFI V5 load(1, XDATA, add(CFA_XSP16, literal(-11)))
        CFI V6 load(1, XDATA, add(CFA_XSP16, literal(-10)))
        CFI V7 load(1, XDATA, add(CFA_XSP16, literal(-9)))
        CFI V8 load(1, XDATA, add(CFA_XSP16, literal(-8)))
        CFI V9 load(1, XDATA, add(CFA_XSP16, literal(-7)))
        CFI R7 load(1, XDATA, add(CFA_XSP16, literal(-6)))
        CFI ?RET_LOW load(1, XDATA, add(CFA_XSP16, literal(-5)))
        CFI ?RET_HIGH load(1, XDATA, add(CFA_XSP16, literal(-4)))
        CFI ?BRET_EXT load(1, XDATA, add(CFA_XSP16, literal(-3)))
        CFI DPL0 load(1, XDATA, add(CFA_XSP16, literal(-2)))
        CFI DPH0 load(1, XDATA, add(CFA_XSP16, literal(-1)))
        CFI CFA_SP SP+0
        CFI CFA_XSP16 add(XSP16, 46)
        CFI Block cfiCond27 Using cfiCommon0
        CFI (cfiCond27) NoFunction
        CFI (cfiCond27) Conditional ??CrossCallReturnLabel_11
        CFI (cfiCond27) R6 load(1, XDATA, add(CFA_XSP16, literal(-19)))
        CFI (cfiCond27) VB load(1, XDATA, add(CFA_XSP16, literal(-18)))
        CFI (cfiCond27) V0 load(1, XDATA, add(CFA_XSP16, literal(-17)))
        CFI (cfiCond27) V1 load(1, XDATA, add(CFA_XSP16, literal(-16)))
        CFI (cfiCond27) V2 load(1, XDATA, add(CFA_XSP16, literal(-15)))
        CFI (cfiCond27) V3 load(1, XDATA, add(CFA_XSP16, literal(-14)))
        CFI (cfiCond27) V4 load(1, XDATA, add(CFA_XSP16, literal(-13)))
        CFI (cfiCond27) V5 load(1, XDATA, add(CFA_XSP16, literal(-12)))
        CFI (cfiCond27) V6 load(1, XDATA, add(CFA_XSP16, literal(-11)))
        CFI (cfiCond27) V7 load(1, XDATA, add(CFA_XSP16, literal(-10)))
        CFI (cfiCond27) V8 load(1, XDATA, add(CFA_XSP16, literal(-9)))
        CFI (cfiCond27) V9 load(1, XDATA, add(CFA_XSP16, literal(-8)))
        CFI (cfiCond27) V10 load(1, XDATA, add(CFA_XSP16, literal(-7)))
        CFI (cfiCond27) R7 load(1, XDATA, add(CFA_XSP16, literal(-6)))
        CFI (cfiCond27) ?RET_LOW load(1, XDATA, add(CFA_XSP16, literal(-5)))
        CFI (cfiCond27) ?RET_HIGH load(1, XDATA, add(CFA_XSP16, literal(-4)))
        CFI (cfiCond27) ?BRET_EXT load(1, XDATA, add(CFA_XSP16, literal(-3)))
        CFI (cfiCond27) DPL0 load(1, XDATA, add(CFA_XSP16, literal(-2)))
        CFI (cfiCond27) DPH0 load(1, XDATA, add(CFA_XSP16, literal(-1)))
        CFI (cfiCond27) CFA_SP SP+0
        CFI (cfiCond27) CFA_XSP16 add(XSP16, 47)
        CFI Block cfiCond28 Using cfiCommon0
        CFI (cfiCond28) NoFunction
        CFI (cfiCond28) Conditional ??CrossCallReturnLabel_12
        CFI (cfiCond28) R6 load(1, XDATA, add(CFA_XSP16, literal(-12)))
        CFI (cfiCond28) VB load(1, XDATA, add(CFA_XSP16, literal(-11)))
        CFI (cfiCond28) V0 load(1, XDATA, add(CFA_XSP16, literal(-10)))
        CFI (cfiCond28) V1 load(1, XDATA, add(CFA_XSP16, literal(-9)))
        CFI (cfiCond28) V2 load(1, XDATA, add(CFA_XSP16, literal(-8)))
        CFI (cfiCond28) V3 load(1, XDATA, add(CFA_XSP16, literal(-7)))
        CFI (cfiCond28) R7 load(1, XDATA, add(CFA_XSP16, literal(-6)))
        CFI (cfiCond28) ?RET_LOW load(1, XDATA, add(CFA_XSP16, literal(-5)))
        CFI (cfiCond28) ?RET_HIGH load(1, XDATA, add(CFA_XSP16, literal(-4)))
        CFI (cfiCond28) ?BRET_EXT load(1, XDATA, add(CFA_XSP16, literal(-3)))
        CFI (cfiCond28) DPL0 load(1, XDATA, add(CFA_XSP16, literal(-2)))
        CFI (cfiCond28) DPH0 load(1, XDATA, add(CFA_XSP16, literal(-1)))
        CFI (cfiCond28) CFA_SP SP+0
        CFI (cfiCond28) CFA_XSP16 add(XSP16, 32)
        CFI Block cfiPicker29 Using cfiCommon1
        CFI (cfiPicker29) NoFunction
        CFI (cfiPicker29) Picker
        MOV     R2,DPL
        MOV     R3,DPH
        CFI EndBlock cfiCond26
        CFI EndBlock cfiCond27
        CFI EndBlock cfiCond28
        CFI EndBlock cfiPicker29
        REQUIRE ??Subroutine10_0
        ; // Fall through to label ??Subroutine10_0

        RSEG BANKED_CODE:CODE:NOROOT(0)
??Subroutine10_0:
        CFI Block cfiCond30 Using cfiCommon0
        CFI NoFunction
        CFI Conditional ??CrossCallReturnLabel_13
        CFI R6 load(1, XDATA, add(CFA_XSP16, literal(-17)))
        CFI VB load(1, XDATA, add(CFA_XSP16, literal(-16)))
        CFI V0 load(1, XDATA, add(CFA_XSP16, literal(-15)))
        CFI V1 load(1, XDATA, add(CFA_XSP16, literal(-14)))
        CFI V2 load(1, XDATA, add(CFA_XSP16, literal(-13)))
        CFI V3 load(1, XDATA, add(CFA_XSP16, literal(-12)))
        CFI V4 load(1, XDATA, add(CFA_XSP16, literal(-11)))
        CFI V5 load(1, XDATA, add(CFA_XSP16, literal(-10)))
        CFI V6 load(1, XDATA, add(CFA_XSP16, literal(-9)))
        CFI V7 load(1, XDATA, add(CFA_XSP16, literal(-8)))
        CFI V8 load(1, XDATA, add(CFA_XSP16, literal(-7)))
        CFI R7 load(1, XDATA, add(CFA_XSP16, literal(-6)))
        CFI ?RET_LOW load(1, XDATA, add(CFA_XSP16, literal(-5)))
        CFI ?RET_HIGH load(1, XDATA, add(CFA_XSP16, literal(-4)))
        CFI ?BRET_EXT load(1, XDATA, add(CFA_XSP16, literal(-3)))
        CFI DPL0 load(1, XDATA, add(CFA_XSP16, literal(-2)))
        CFI DPH0 load(1, XDATA, add(CFA_XSP16, literal(-1)))
        CFI CFA_SP SP+0
        CFI CFA_XSP16 add(XSP16, 20)
        CFI Block cfiCond31 Using cfiCommon0
        CFI (cfiCond31) NoFunction
        CFI (cfiCond31) Conditional ??CrossCallReturnLabel_14
        CFI (cfiCond31) R6 load(1, XDATA, add(CFA_XSP16, literal(-17)))
        CFI (cfiCond31) VB load(1, XDATA, add(CFA_XSP16, literal(-16)))
        CFI (cfiCond31) V0 load(1, XDATA, add(CFA_XSP16, literal(-15)))
        CFI (cfiCond31) V1 load(1, XDATA, add(CFA_XSP16, literal(-14)))
        CFI (cfiCond31) V2 load(1, XDATA, add(CFA_XSP16, literal(-13)))
        CFI (cfiCond31) V3 load(1, XDATA, add(CFA_XSP16, literal(-12)))
        CFI (cfiCond31) V4 load(1, XDATA, add(CFA_XSP16, literal(-11)))
        CFI (cfiCond31) V5 load(1, XDATA, add(CFA_XSP16, literal(-10)))
        CFI (cfiCond31) V6 load(1, XDATA, add(CFA_XSP16, literal(-9)))
        CFI (cfiCond31) V7 load(1, XDATA, add(CFA_XSP16, literal(-8)))
        CFI (cfiCond31) V8 load(1, XDATA, add(CFA_XSP16, literal(-7)))
        CFI (cfiCond31) R7 load(1, XDATA, add(CFA_XSP16, literal(-6)))
        CFI (cfiCond31) ?RET_LOW load(1, XDATA, add(CFA_XSP16, literal(-5)))
        CFI (cfiCond31) ?RET_HIGH load(1, XDATA, add(CFA_XSP16, literal(-4)))
        CFI (cfiCond31) ?BRET_EXT load(1, XDATA, add(CFA_XSP16, literal(-3)))
        CFI (cfiCond31) DPL0 load(1, XDATA, add(CFA_XSP16, literal(-2)))
        CFI (cfiCond31) DPH0 load(1, XDATA, add(CFA_XSP16, literal(-1)))
        CFI (cfiCond31) CFA_SP SP+0
        CFI (cfiCond31) CFA_XSP16 add(XSP16, 20)
        CFI Block cfiCond32 Using cfiCommon0
        CFI (cfiCond32) NoFunction
        CFI (cfiCond32) Conditional ??CrossCallReturnLabel_15
        CFI (cfiCond32) R6 load(1, XDATA, add(CFA_XSP16, literal(-17)))
        CFI (cfiCond32) VB load(1, XDATA, add(CFA_XSP16, literal(-16)))
        CFI (cfiCond32) V0 load(1, XDATA, add(CFA_XSP16, literal(-15)))
        CFI (cfiCond32) V1 load(1, XDATA, add(CFA_XSP16, literal(-14)))
        CFI (cfiCond32) V2 load(1, XDATA, add(CFA_XSP16, literal(-13)))
        CFI (cfiCond32) V3 load(1, XDATA, add(CFA_XSP16, literal(-12)))
        CFI (cfiCond32) V4 load(1, XDATA, add(CFA_XSP16, literal(-11)))
        CFI (cfiCond32) V5 load(1, XDATA, add(CFA_XSP16, literal(-10)))
        CFI (cfiCond32) V6 load(1, XDATA, add(CFA_XSP16, literal(-9)))
        CFI (cfiCond32) V7 load(1, XDATA, add(CFA_XSP16, literal(-8)))
        CFI (cfiCond32) V8 load(1, XDATA, add(CFA_XSP16, literal(-7)))
        CFI (cfiCond32) R7 load(1, XDATA, add(CFA_XSP16, literal(-6)))
        CFI (cfiCond32) ?RET_LOW load(1, XDATA, add(CFA_XSP16, literal(-5)))
        CFI (cfiCond32) ?RET_HIGH load(1, XDATA, add(CFA_XSP16, literal(-4)))
        CFI (cfiCond32) ?BRET_EXT load(1, XDATA, add(CFA_XSP16, literal(-3)))
        CFI (cfiCond32) DPL0 load(1, XDATA, add(CFA_XSP16, literal(-2)))
        CFI (cfiCond32) DPH0 load(1, XDATA, add(CFA_XSP16, literal(-1)))
        CFI (cfiCond32) CFA_SP SP+0
        CFI (cfiCond32) CFA_XSP16 add(XSP16, 20)
        CFI Block cfiCond33 Using cfiCommon0
        CFI (cfiCond33) NoFunction
        CFI (cfiCond33) Conditional ??CrossCallReturnLabel_10
        CFI (cfiCond33) R6 load(1, XDATA, add(CFA_XSP16, literal(-18)))
        CFI (cfiCond33) VB load(1, XDATA, add(CFA_XSP16, literal(-17)))
        CFI (cfiCond33) V0 load(1, XDATA, add(CFA_XSP16, literal(-16)))
        CFI (cfiCond33) V1 load(1, XDATA, add(CFA_XSP16, literal(-15)))
        CFI (cfiCond33) V2 load(1, XDATA, add(CFA_XSP16, literal(-14)))
        CFI (cfiCond33) V3 load(1, XDATA, add(CFA_XSP16, literal(-13)))
        CFI (cfiCond33) V4 load(1, XDATA, add(CFA_XSP16, literal(-12)))
        CFI (cfiCond33) V5 load(1, XDATA, add(CFA_XSP16, literal(-11)))
        CFI (cfiCond33) V6 load(1, XDATA, add(CFA_XSP16, literal(-10)))
        CFI (cfiCond33) V7 load(1, XDATA, add(CFA_XSP16, literal(-9)))
        CFI (cfiCond33) V8 load(1, XDATA, add(CFA_XSP16, literal(-8)))
        CFI (cfiCond33) V9 load(1, XDATA, add(CFA_XSP16, literal(-7)))
        CFI (cfiCond33) R7 load(1, XDATA, add(CFA_XSP16, literal(-6)))
        CFI (cfiCond33) ?RET_LOW load(1, XDATA, add(CFA_XSP16, literal(-5)))
        CFI (cfiCond33) ?RET_HIGH load(1, XDATA, add(CFA_XSP16, literal(-4)))
        CFI (cfiCond33) ?BRET_EXT load(1, XDATA, add(CFA_XSP16, literal(-3)))
        CFI (cfiCond33) DPL0 load(1, XDATA, add(CFA_XSP16, literal(-2)))
        CFI (cfiCond33) DPH0 load(1, XDATA, add(CFA_XSP16, literal(-1)))
        CFI (cfiCond33) CFA_SP SP+0
        CFI (cfiCond33) CFA_XSP16 add(XSP16, 46)
        CFI Block cfiCond34 Using cfiCommon0
        CFI (cfiCond34) NoFunction
        CFI (cfiCond34) Conditional ??CrossCallReturnLabel_11
        CFI (cfiCond34) R6 load(1, XDATA, add(CFA_XSP16, literal(-19)))
        CFI (cfiCond34) VB load(1, XDATA, add(CFA_XSP16, literal(-18)))
        CFI (cfiCond34) V0 load(1, XDATA, add(CFA_XSP16, literal(-17)))
        CFI (cfiCond34) V1 load(1, XDATA, add(CFA_XSP16, literal(-16)))
        CFI (cfiCond34) V2 load(1, XDATA, add(CFA_XSP16, literal(-15)))
        CFI (cfiCond34) V3 load(1, XDATA, add(CFA_XSP16, literal(-14)))
        CFI (cfiCond34) V4 load(1, XDATA, add(CFA_XSP16, literal(-13)))
        CFI (cfiCond34) V5 load(1, XDATA, add(CFA_XSP16, literal(-12)))
        CFI (cfiCond34) V6 load(1, XDATA, add(CFA_XSP16, literal(-11)))
        CFI (cfiCond34) V7 load(1, XDATA, add(CFA_XSP16, literal(-10)))
        CFI (cfiCond34) V8 load(1, XDATA, add(CFA_XSP16, literal(-9)))
        CFI (cfiCond34) V9 load(1, XDATA, add(CFA_XSP16, literal(-8)))
        CFI (cfiCond34) V10 load(1, XDATA, add(CFA_XSP16, literal(-7)))
        CFI (cfiCond34) R7 load(1, XDATA, add(CFA_XSP16, literal(-6)))
        CFI (cfiCond34) ?RET_LOW load(1, XDATA, add(CFA_XSP16, literal(-5)))
        CFI (cfiCond34) ?RET_HIGH load(1, XDATA, add(CFA_XSP16, literal(-4)))
        CFI (cfiCond34) ?BRET_EXT load(1, XDATA, add(CFA_XSP16, literal(-3)))
        CFI (cfiCond34) DPL0 load(1, XDATA, add(CFA_XSP16, literal(-2)))
        CFI (cfiCond34) DPH0 load(1, XDATA, add(CFA_XSP16, literal(-1)))
        CFI (cfiCond34) CFA_SP SP+0
        CFI (cfiCond34) CFA_XSP16 add(XSP16, 47)
        CFI Block cfiCond35 Using cfiCommon0
        CFI (cfiCond35) NoFunction
        CFI (cfiCond35) Conditional ??CrossCallReturnLabel_12
        CFI (cfiCond35) R6 load(1, XDATA, add(CFA_XSP16, literal(-12)))
        CFI (cfiCond35) VB load(1, XDATA, add(CFA_XSP16, literal(-11)))
        CFI (cfiCond35) V0 load(1, XDATA, add(CFA_XSP16, literal(-10)))
        CFI (cfiCond35) V1 load(1, XDATA, add(CFA_XSP16, literal(-9)))
        CFI (cfiCond35) V2 load(1, XDATA, add(CFA_XSP16, literal(-8)))
        CFI (cfiCond35) V3 load(1, XDATA, add(CFA_XSP16, literal(-7)))
        CFI (cfiCond35) R7 load(1, XDATA, add(CFA_XSP16, literal(-6)))
        CFI (cfiCond35) ?RET_LOW load(1, XDATA, add(CFA_XSP16, literal(-5)))
        CFI (cfiCond35) ?RET_HIGH load(1, XDATA, add(CFA_XSP16, literal(-4)))
        CFI (cfiCond35) ?BRET_EXT load(1, XDATA, add(CFA_XSP16, literal(-3)))
        CFI (cfiCond35) DPL0 load(1, XDATA, add(CFA_XSP16, literal(-2)))
        CFI (cfiCond35) DPH0 load(1, XDATA, add(CFA_XSP16, literal(-1)))
        CFI (cfiCond35) CFA_SP SP+0
        CFI (cfiCond35) CFA_XSP16 add(XSP16, 32)
        CFI Block cfiPicker36 Using cfiCommon1
        CFI (cfiPicker36) NoFunction
        CFI (cfiPicker36) Picker
        LCALL   ??osal_memcpy?relay
        MOV     A,#0x3
        RET
        CFI EndBlock cfiCond30
        CFI EndBlock cfiCond31
        CFI EndBlock cfiCond32
        CFI EndBlock cfiCond33
        CFI EndBlock cfiCond34
        CFI EndBlock cfiCond35
        CFI EndBlock cfiPicker36

        RSEG BANKED_CODE:CODE:NOROOT(0)
?Subroutine2:
        CFI Block cfiCond37 Using cfiCommon0
        CFI NoFunction
        CFI Conditional ??CrossCallReturnLabel_18
        CFI R6 load(1, XDATA, add(CFA_XSP16, literal(-18)))
        CFI VB load(1, XDATA, add(CFA_XSP16, literal(-17)))
        CFI V0 load(1, XDATA, add(CFA_XSP16, literal(-16)))
        CFI V1 load(1, XDATA, add(CFA_XSP16, literal(-15)))
        CFI V2 load(1, XDATA, add(CFA_XSP16, literal(-14)))
        CFI V3 load(1, XDATA, add(CFA_XSP16, literal(-13)))
        CFI V4 load(1, XDATA, add(CFA_XSP16, literal(-12)))
        CFI V5 load(1, XDATA, add(CFA_XSP16, literal(-11)))
        CFI V6 load(1, XDATA, add(CFA_XSP16, literal(-10)))
        CFI V7 load(1, XDATA, add(CFA_XSP16, literal(-9)))
        CFI V8 load(1, XDATA, add(CFA_XSP16, literal(-8)))
        CFI V9 load(1, XDATA, add(CFA_XSP16, literal(-7)))
        CFI R7 load(1, XDATA, add(CFA_XSP16, literal(-6)))
        CFI ?RET_LOW load(1, XDATA, add(CFA_XSP16, literal(-5)))
        CFI ?RET_HIGH load(1, XDATA, add(CFA_XSP16, literal(-4)))
        CFI ?BRET_EXT load(1, XDATA, add(CFA_XSP16, literal(-3)))
        CFI DPL0 load(1, XDATA, add(CFA_XSP16, literal(-2)))
        CFI DPH0 load(1, XDATA, add(CFA_XSP16, literal(-1)))
        CFI CFA_SP SP+0
        CFI CFA_XSP16 add(XSP16, 43)
        CFI Block cfiCond38 Using cfiCommon0
        CFI (cfiCond38) NoFunction
        CFI (cfiCond38) Conditional ??CrossCallReturnLabel_19
        CFI (cfiCond38) R6 load(1, XDATA, add(CFA_XSP16, literal(-19)))
        CFI (cfiCond38) VB load(1, XDATA, add(CFA_XSP16, literal(-18)))
        CFI (cfiCond38) V0 load(1, XDATA, add(CFA_XSP16, literal(-17)))
        CFI (cfiCond38) V1 load(1, XDATA, add(CFA_XSP16, literal(-16)))
        CFI (cfiCond38) V2 load(1, XDATA, add(CFA_XSP16, literal(-15)))
        CFI (cfiCond38) V3 load(1, XDATA, add(CFA_XSP16, literal(-14)))
        CFI (cfiCond38) V4 load(1, XDATA, add(CFA_XSP16, literal(-13)))
        CFI (cfiCond38) V5 load(1, XDATA, add(CFA_XSP16, literal(-12)))
        CFI (cfiCond38) V6 load(1, XDATA, add(CFA_XSP16, literal(-11)))
        CFI (cfiCond38) V7 load(1, XDATA, add(CFA_XSP16, literal(-10)))
        CFI (cfiCond38) V8 load(1, XDATA, add(CFA_XSP16, literal(-9)))
        CFI (cfiCond38) V9 load(1, XDATA, add(CFA_XSP16, literal(-8)))
        CFI (cfiCond38) V10 load(1, XDATA, add(CFA_XSP16, literal(-7)))
        CFI (cfiCond38) R7 load(1, XDATA, add(CFA_XSP16, literal(-6)))
        CFI (cfiCond38) ?RET_LOW load(1, XDATA, add(CFA_XSP16, literal(-5)))
        CFI (cfiCond38) ?RET_HIGH load(1, XDATA, add(CFA_XSP16, literal(-4)))
        CFI (cfiCond38) ?BRET_EXT load(1, XDATA, add(CFA_XSP16, literal(-3)))
        CFI (cfiCond38) DPL0 load(1, XDATA, add(CFA_XSP16, literal(-2)))
        CFI (cfiCond38) DPH0 load(1, XDATA, add(CFA_XSP16, literal(-1)))
        CFI (cfiCond38) CFA_SP SP+0
        CFI (cfiCond38) CFA_XSP16 add(XSP16, 44)
        CFI Block cfiPicker39 Using cfiCommon1
        CFI (cfiPicker39) NoFunction
        CFI (cfiPicker39) Picker
        MOV     DPL,?XSP + 0
        MOV     DPH,?XSP + 1
        MOV     A,DPL
        ADD     A,?V0 + 2
        CFI EndBlock cfiCond37
        CFI EndBlock cfiCond38
        CFI EndBlock cfiPicker39
        REQUIRE ??Subroutine11_0
        ; // Fall through to label ??Subroutine11_0

        RSEG BANKED_CODE:CODE:NOROOT(0)
??Subroutine11_0:
        CFI Block cfiCond40 Using cfiCommon0
        CFI NoFunction
        CFI Conditional ??CrossCallReturnLabel_17
        CFI R6 load(1, XDATA, add(CFA_XSP16, literal(-19)))
        CFI VB load(1, XDATA, add(CFA_XSP16, literal(-18)))
        CFI V0 load(1, XDATA, add(CFA_XSP16, literal(-17)))
        CFI V1 load(1, XDATA, add(CFA_XSP16, literal(-16)))
        CFI V2 load(1, XDATA, add(CFA_XSP16, literal(-15)))
        CFI V3 load(1, XDATA, add(CFA_XSP16, literal(-14)))
        CFI V4 load(1, XDATA, add(CFA_XSP16, literal(-13)))
        CFI V5 load(1, XDATA, add(CFA_XSP16, literal(-12)))
        CFI V6 load(1, XDATA, add(CFA_XSP16, literal(-11)))
        CFI V7 load(1, XDATA, add(CFA_XSP16, literal(-10)))
        CFI V8 load(1, XDATA, add(CFA_XSP16, literal(-9)))
        CFI V9 load(1, XDATA, add(CFA_XSP16, literal(-8)))
        CFI V10 load(1, XDATA, add(CFA_XSP16, literal(-7)))
        CFI R7 load(1, XDATA, add(CFA_XSP16, literal(-6)))
        CFI ?RET_LOW load(1, XDATA, add(CFA_XSP16, literal(-5)))
        CFI ?RET_HIGH load(1, XDATA, add(CFA_XSP16, literal(-4)))
        CFI ?BRET_EXT load(1, XDATA, add(CFA_XSP16, literal(-3)))
        CFI DPL0 load(1, XDATA, add(CFA_XSP16, literal(-2)))
        CFI DPH0 load(1, XDATA, add(CFA_XSP16, literal(-1)))
        CFI CFA_SP SP+0
        CFI CFA_XSP16 add(XSP16, 44)
        CFI Block cfiCond41 Using cfiCommon0
        CFI (cfiCond41) NoFunction
        CFI (cfiCond41) Conditional ??CrossCallReturnLabel_18
        CFI (cfiCond41) R6 load(1, XDATA, add(CFA_XSP16, literal(-18)))
        CFI (cfiCond41) VB load(1, XDATA, add(CFA_XSP16, literal(-17)))
        CFI (cfiCond41) V0 load(1, XDATA, add(CFA_XSP16, literal(-16)))
        CFI (cfiCond41) V1 load(1, XDATA, add(CFA_XSP16, literal(-15)))
        CFI (cfiCond41) V2 load(1, XDATA, add(CFA_XSP16, literal(-14)))
        CFI (cfiCond41) V3 load(1, XDATA, add(CFA_XSP16, literal(-13)))
        CFI (cfiCond41) V4 load(1, XDATA, add(CFA_XSP16, literal(-12)))
        CFI (cfiCond41) V5 load(1, XDATA, add(CFA_XSP16, literal(-11)))
        CFI (cfiCond41) V6 load(1, XDATA, add(CFA_XSP16, literal(-10)))
        CFI (cfiCond41) V7 load(1, XDATA, add(CFA_XSP16, literal(-9)))
        CFI (cfiCond41) V8 load(1, XDATA, add(CFA_XSP16, literal(-8)))
        CFI (cfiCond41) V9 load(1, XDATA, add(CFA_XSP16, literal(-7)))
        CFI (cfiCond41) R7 load(1, XDATA, add(CFA_XSP16, literal(-6)))
        CFI (cfiCond41) ?RET_LOW load(1, XDATA, add(CFA_XSP16, literal(-5)))
        CFI (cfiCond41) ?RET_HIGH load(1, XDATA, add(CFA_XSP16, literal(-4)))
        CFI (cfiCond41) ?BRET_EXT load(1, XDATA, add(CFA_XSP16, literal(-3)))
        CFI (cfiCond41) DPL0 load(1, XDATA, add(CFA_XSP16, literal(-2)))
        CFI (cfiCond41) DPH0 load(1, XDATA, add(CFA_XSP16, literal(-1)))
        CFI (cfiCond41) CFA_SP SP+0
        CFI (cfiCond41) CFA_XSP16 add(XSP16, 43)
        CFI Block cfiCond42 Using cfiCommon0
        CFI (cfiCond42) NoFunction
        CFI (cfiCond42) Conditional ??CrossCallReturnLabel_19
        CFI (cfiCond42) R6 load(1, XDATA, add(CFA_XSP16, literal(-19)))
        CFI (cfiCond42) VB load(1, XDATA, add(CFA_XSP16, literal(-18)))
        CFI (cfiCond42) V0 load(1, XDATA, add(CFA_XSP16, literal(-17)))
        CFI (cfiCond42) V1 load(1, XDATA, add(CFA_XSP16, literal(-16)))
        CFI (cfiCond42) V2 load(1, XDATA, add(CFA_XSP16, literal(-15)))
        CFI (cfiCond42) V3 load(1, XDATA, add(CFA_XSP16, literal(-14)))
        CFI (cfiCond42) V4 load(1, XDATA, add(CFA_XSP16, literal(-13)))
        CFI (cfiCond42) V5 load(1, XDATA, add(CFA_XSP16, literal(-12)))
        CFI (cfiCond42) V6 load(1, XDATA, add(CFA_XSP16, literal(-11)))
        CFI (cfiCond42) V7 load(1, XDATA, add(CFA_XSP16, literal(-10)))
        CFI (cfiCond42) V8 load(1, XDATA, add(CFA_XSP16, literal(-9)))
        CFI (cfiCond42) V9 load(1, XDATA, add(CFA_XSP16, literal(-8)))
        CFI (cfiCond42) V10 load(1, XDATA, add(CFA_XSP16, literal(-7)))
        CFI (cfiCond42) R7 load(1, XDATA, add(CFA_XSP16, literal(-6)))
        CFI (cfiCond42) ?RET_LOW load(1, XDATA, add(CFA_XSP16, literal(-5)))
        CFI (cfiCond42) ?RET_HIGH load(1, XDATA, add(CFA_XSP16, literal(-4)))
        CFI (cfiCond42) ?BRET_EXT load(1, XDATA, add(CFA_XSP16, literal(-3)))
        CFI (cfiCond42) DPL0 load(1, XDATA, add(CFA_XSP16, literal(-2)))
        CFI (cfiCond42) DPH0 load(1, XDATA, add(CFA_XSP16, literal(-1)))
        CFI (cfiCond42) CFA_SP SP+0
        CFI (cfiCond42) CFA_XSP16 add(XSP16, 44)
        CFI Block cfiPicker43 Using cfiCommon1
        CFI (cfiPicker43) NoFunction
        CFI (cfiPicker43) Picker
        MOV     DPL,A
        MOV     A,DPH
        CFI EndBlock cfiCond40
        CFI EndBlock cfiCond41
        CFI EndBlock cfiCond42
        CFI EndBlock cfiPicker43
        REQUIRE ??Subroutine12_0
        ; // Fall through to label ??Subroutine12_0

        RSEG BANKED_CODE:CODE:NOROOT(0)
??Subroutine12_0:
        CFI Block cfiCond44 Using cfiCommon0
        CFI NoFunction
        CFI Conditional ??CrossCallReturnLabel_16
        CFI R6 load(1, XDATA, add(CFA_XSP16, literal(-17)))
        CFI VB load(1, XDATA, add(CFA_XSP16, literal(-16)))
        CFI V0 load(1, XDATA, add(CFA_XSP16, literal(-15)))
        CFI V1 load(1, XDATA, add(CFA_XSP16, literal(-14)))
        CFI V2 load(1, XDATA, add(CFA_XSP16, literal(-13)))
        CFI V3 load(1, XDATA, add(CFA_XSP16, literal(-12)))
        CFI V4 load(1, XDATA, add(CFA_XSP16, literal(-11)))
        CFI V5 load(1, XDATA, add(CFA_XSP16, literal(-10)))
        CFI V6 load(1, XDATA, add(CFA_XSP16, literal(-9)))
        CFI V7 load(1, XDATA, add(CFA_XSP16, literal(-8)))
        CFI V8 load(1, XDATA, add(CFA_XSP16, literal(-7)))
        CFI R7 load(1, XDATA, add(CFA_XSP16, literal(-6)))
        CFI ?RET_LOW load(1, XDATA, add(CFA_XSP16, literal(-5)))
        CFI ?RET_HIGH load(1, XDATA, add(CFA_XSP16, literal(-4)))
        CFI ?BRET_EXT load(1, XDATA, add(CFA_XSP16, literal(-3)))
        CFI DPL0 load(1, XDATA, add(CFA_XSP16, literal(-2)))
        CFI DPH0 load(1, XDATA, add(CFA_XSP16, literal(-1)))
        CFI CFA_SP SP+0
        CFI CFA_XSP16 add(XSP16, 17)
        CFI Block cfiCond45 Using cfiCommon0
        CFI (cfiCond45) NoFunction
        CFI (cfiCond45) Conditional ??CrossCallReturnLabel_17
        CFI (cfiCond45) R6 load(1, XDATA, add(CFA_XSP16, literal(-19)))
        CFI (cfiCond45) VB load(1, XDATA, add(CFA_XSP16, literal(-18)))
        CFI (cfiCond45) V0 load(1, XDATA, add(CFA_XSP16, literal(-17)))
        CFI (cfiCond45) V1 load(1, XDATA, add(CFA_XSP16, literal(-16)))
        CFI (cfiCond45) V2 load(1, XDATA, add(CFA_XSP16, literal(-15)))
        CFI (cfiCond45) V3 load(1, XDATA, add(CFA_XSP16, literal(-14)))
        CFI (cfiCond45) V4 load(1, XDATA, add(CFA_XSP16, literal(-13)))
        CFI (cfiCond45) V5 load(1, XDATA, add(CFA_XSP16, literal(-12)))
        CFI (cfiCond45) V6 load(1, XDATA, add(CFA_XSP16, literal(-11)))
        CFI (cfiCond45) V7 load(1, XDATA, add(CFA_XSP16, literal(-10)))
        CFI (cfiCond45) V8 load(1, XDATA, add(CFA_XSP16, literal(-9)))
        CFI (cfiCond45) V9 load(1, XDATA, add(CFA_XSP16, literal(-8)))
        CFI (cfiCond45) V10 load(1, XDATA, add(CFA_XSP16, literal(-7)))
        CFI (cfiCond45) R7 load(1, XDATA, add(CFA_XSP16, literal(-6)))
        CFI (cfiCond45) ?RET_LOW load(1, XDATA, add(CFA_XSP16, literal(-5)))
        CFI (cfiCond45) ?RET_HIGH load(1, XDATA, add(CFA_XSP16, literal(-4)))
        CFI (cfiCond45) ?BRET_EXT load(1, XDATA, add(CFA_XSP16, literal(-3)))
        CFI (cfiCond45) DPL0 load(1, XDATA, add(CFA_XSP16, literal(-2)))
        CFI (cfiCond45) DPH0 load(1, XDATA, add(CFA_XSP16, literal(-1)))
        CFI (cfiCond45) CFA_SP SP+0
        CFI (cfiCond45) CFA_XSP16 add(XSP16, 44)
        CFI Block cfiCond46 Using cfiCommon0
        CFI (cfiCond46) NoFunction
        CFI (cfiCond46) Conditional ??CrossCallReturnLabel_18
        CFI (cfiCond46) R6 load(1, XDATA, add(CFA_XSP16, literal(-18)))
        CFI (cfiCond46) VB load(1, XDATA, add(CFA_XSP16, literal(-17)))
        CFI (cfiCond46) V0 load(1, XDATA, add(CFA_XSP16, literal(-16)))
        CFI (cfiCond46) V1 load(1, XDATA, add(CFA_XSP16, literal(-15)))
        CFI (cfiCond46) V2 load(1, XDATA, add(CFA_XSP16, literal(-14)))
        CFI (cfiCond46) V3 load(1, XDATA, add(CFA_XSP16, literal(-13)))
        CFI (cfiCond46) V4 load(1, XDATA, add(CFA_XSP16, literal(-12)))
        CFI (cfiCond46) V5 load(1, XDATA, add(CFA_XSP16, literal(-11)))
        CFI (cfiCond46) V6 load(1, XDATA, add(CFA_XSP16, literal(-10)))
        CFI (cfiCond46) V7 load(1, XDATA, add(CFA_XSP16, literal(-9)))
        CFI (cfiCond46) V8 load(1, XDATA, add(CFA_XSP16, literal(-8)))
        CFI (cfiCond46) V9 load(1, XDATA, add(CFA_XSP16, literal(-7)))
        CFI (cfiCond46) R7 load(1, XDATA, add(CFA_XSP16, literal(-6)))
        CFI (cfiCond46) ?RET_LOW load(1, XDATA, add(CFA_XSP16, literal(-5)))
        CFI (cfiCond46) ?RET_HIGH load(1, XDATA, add(CFA_XSP16, literal(-4)))
        CFI (cfiCond46) ?BRET_EXT load(1, XDATA, add(CFA_XSP16, literal(-3)))
        CFI (cfiCond46) DPL0 load(1, XDATA, add(CFA_XSP16, literal(-2)))
        CFI (cfiCond46) DPH0 load(1, XDATA, add(CFA_XSP16, literal(-1)))
        CFI (cfiCond46) CFA_SP SP+0
        CFI (cfiCond46) CFA_XSP16 add(XSP16, 43)
        CFI Block cfiCond47 Using cfiCommon0
        CFI (cfiCond47) NoFunction
        CFI (cfiCond47) Conditional ??CrossCallReturnLabel_19
        CFI (cfiCond47) R6 load(1, XDATA, add(CFA_XSP16, literal(-19)))
        CFI (cfiCond47) VB load(1, XDATA, add(CFA_XSP16, literal(-18)))
        CFI (cfiCond47) V0 load(1, XDATA, add(CFA_XSP16, literal(-17)))
        CFI (cfiCond47) V1 load(1, XDATA, add(CFA_XSP16, literal(-16)))
        CFI (cfiCond47) V2 load(1, XDATA, add(CFA_XSP16, literal(-15)))
        CFI (cfiCond47) V3 load(1, XDATA, add(CFA_XSP16, literal(-14)))
        CFI (cfiCond47) V4 load(1, XDATA, add(CFA_XSP16, literal(-13)))
        CFI (cfiCond47) V5 load(1, XDATA, add(CFA_XSP16, literal(-12)))
        CFI (cfiCond47) V6 load(1, XDATA, add(CFA_XSP16, literal(-11)))
        CFI (cfiCond47) V7 load(1, XDATA, add(CFA_XSP16, literal(-10)))
        CFI (cfiCond47) V8 load(1, XDATA, add(CFA_XSP16, literal(-9)))
        CFI (cfiCond47) V9 load(1, XDATA, add(CFA_XSP16, literal(-8)))
        CFI (cfiCond47) V10 load(1, XDATA, add(CFA_XSP16, literal(-7)))
        CFI (cfiCond47) R7 load(1, XDATA, add(CFA_XSP16, literal(-6)))
        CFI (cfiCond47) ?RET_LOW load(1, XDATA, add(CFA_XSP16, literal(-5)))
        CFI (cfiCond47) ?RET_HIGH load(1, XDATA, add(CFA_XSP16, literal(-4)))
        CFI (cfiCond47) ?BRET_EXT load(1, XDATA, add(CFA_XSP16, literal(-3)))
        CFI (cfiCond47) DPL0 load(1, XDATA, add(CFA_XSP16, literal(-2)))
        CFI (cfiCond47) DPH0 load(1, XDATA, add(CFA_XSP16, literal(-1)))
        CFI (cfiCond47) CFA_SP SP+0
        CFI (cfiCond47) CFA_XSP16 add(XSP16, 44)
        CFI Block cfiPicker48 Using cfiCommon1
        CFI (cfiPicker48) NoFunction
        CFI (cfiPicker48) Picker
        ADDC    A,#0x0
        MOV     DPH,A
        MOV     A,#0x20
        MOVX    @DPTR,A
        RET
        CFI EndBlock cfiCond44
        CFI EndBlock cfiCond45
        CFI EndBlock cfiCond46
        CFI EndBlock cfiCond47
        CFI EndBlock cfiPicker48
//  448 
//  449 /**************************************************************************************************
//  450  * @fn      HalLcdDisplayPercentBar
//  451  *
//  452  * @brief   Display percentage bar on the LCD
//  453  *
//  454  * @param   title   -
//  455  *          value   -
//  456  *
//  457  * @return  None
//  458  **************************************************************************************************/

        RSEG BANKED_CODE:CODE:NOROOT(0)
//  459 void HalLcdDisplayPercentBar( char *title, uint8 value )
HalLcdDisplayPercentBar:
        CFI Block cfiBlock49 Using cfiCommon0
        CFI Function HalLcdDisplayPercentBar
        CODE
//  460 {
        FUNCALL HalLcdDisplayPercentBar, HalLcdWriteString
        LOCFRAME ISTACK, 0, STACK
        LOCFRAME PSTACK, 0, STACK
        LOCFRAME XSTACK, 29, STACK
        LOCFRAME IOVERLAY, 0, STATIC
        LOCFRAME DOVERLAY, 0, STATIC
        ARGFRAME ISTACK, 0, STACK
        ARGFRAME PSTACK, 0, STACK
        ARGFRAME XSTACK, 29, STACK
        ARGFRAME IOVERLAY, 0, STATIC
        ARGFRAME DOVERLAY, 0, STATIC
        FUNCALL HalLcdDisplayPercentBar, osal_memcpy
        LOCFRAME ISTACK, 0, STACK
        LOCFRAME PSTACK, 0, STACK
        LOCFRAME XSTACK, 32, STACK
        LOCFRAME IOVERLAY, 0, STATIC
        LOCFRAME DOVERLAY, 0, STATIC
        ARGFRAME ISTACK, 0, STACK
        ARGFRAME PSTACK, 0, STACK
        ARGFRAME XSTACK, 32, STACK
        ARGFRAME IOVERLAY, 0, STATIC
        ARGFRAME DOVERLAY, 0, STATIC
        FUNCALL HalLcdDisplayPercentBar, _ltoa
        LOCFRAME ISTACK, 0, STACK
        LOCFRAME PSTACK, 0, STACK
        LOCFRAME XSTACK, 31, STACK
        LOCFRAME IOVERLAY, 0, STATIC
        LOCFRAME DOVERLAY, 0, STATIC
        ARGFRAME ISTACK, 0, STACK
        ARGFRAME PSTACK, 0, STACK
        ARGFRAME XSTACK, 31, STACK
        ARGFRAME IOVERLAY, 0, STATIC
        ARGFRAME DOVERLAY, 0, STATIC
        FUNCALL HalLcdDisplayPercentBar, HalLcdWriteString
        LOCFRAME ISTACK, 0, STACK
        LOCFRAME PSTACK, 0, STACK
        LOCFRAME XSTACK, 29, STACK
        LOCFRAME IOVERLAY, 0, STATIC
        LOCFRAME DOVERLAY, 0, STATIC
        ARGFRAME ISTACK, 0, STACK
        ARGFRAME PSTACK, 0, STACK
        ARGFRAME XSTACK, 29, STACK
        ARGFRAME IOVERLAY, 0, STATIC
        ARGFRAME DOVERLAY, 0, STATIC
        MOV     A,#-0xc
        LCALL   ?BANKED_ENTER_XDATA
        CFI DPH0 load(1, XDATA, add(CFA_XSP16, literal(-1)))
        CFI DPL0 load(1, XDATA, add(CFA_XSP16, literal(-2)))
        CFI ?BRET_EXT load(1, XDATA, add(CFA_XSP16, literal(-3)))
        CFI ?RET_HIGH load(1, XDATA, add(CFA_XSP16, literal(-4)))
        CFI ?RET_LOW load(1, XDATA, add(CFA_XSP16, literal(-5)))
        CFI R7 load(1, XDATA, add(CFA_XSP16, literal(-6)))
        CFI V3 load(1, XDATA, add(CFA_XSP16, literal(-7)))
        CFI V2 load(1, XDATA, add(CFA_XSP16, literal(-8)))
        CFI V1 load(1, XDATA, add(CFA_XSP16, literal(-9)))
        CFI V0 load(1, XDATA, add(CFA_XSP16, literal(-10)))
        CFI VB load(1, XDATA, add(CFA_XSP16, literal(-11)))
        CFI R6 load(1, XDATA, add(CFA_XSP16, literal(-12)))
        CFI CFA_SP SP+0
        CFI CFA_XSP16 add(XSP16, 12)
        ; Saved register size: 12
        ; Auto size: 17
        MOV     A,#-0x11
        LCALL   ?ALLOC_XSTACK8
        CFI CFA_XSP16 add(XSP16, 29)
        MOV     A,R1
        MOV     R6,A
//  461 #if (HAL_LCD == TRUE)
//  462 
//  463   uint8 percent;
//  464   uint8 leftOver;
//  465   uint8 buf[17];
//  466   uint32 err;
//  467   uint8 x;
//  468 
//  469   /* Write the title: */
//  470   HalLcdWriteString( title, HAL_LCD_LINE_1 );
        ; Setup parameters for call to function HalLcdWriteString
        MOV     R1,#0x1
        LCALL   ??HalLcdWriteString?relay
//  471 
//  472   if ( value > 100 )
        MOV     A,R6
        CLR     C
        SUBB    A,#0x65
        JC      ??HalLcdDisplayPercentBar_0
//  473     value = 100;
        MOV     R6,#0x64
//  474 
//  475   /* convert to blocks */
//  476   percent = (uint8)(value / 10);
??HalLcdDisplayPercentBar_0:
        MOV     B,#0xa
        MOV     A,R6
        DIV     AB
        MOV     ?V0 + 3,A
//  477   leftOver = (uint8)(value % 10);
        MOV     A,R6
        MOV     B,#0xa
        DIV     AB
        MOV     R7,B
//  478 
//  479   /* Make window */
//  480   osal_memcpy( buf, "[          ]  ", 15 );
        ; Setup parameters for call to function osal_memcpy
        MOV     ?V0 + 0,#`?<Constant "[          ]  ">` & 0xff
        MOV     ?V0 + 1,#(`?<Constant "[          ]  ">` >> 8) & 0xff
        MOV     ?V0 + 2,#0x0
        MOV     R0,#?V0 + 0
        LCALL   ?PUSH_XSTACK_I_THREE
        CFI CFA_XSP16 add(XSP16, 32)
        MOV     R4,#0xf
        MOV     R5,#0x0
        MOV     A,#0x3
        LCALL   ?XSTACK_DISP0_8
        LCALL   ?Subroutine3 & 0xFFFF
??CrossCallReturnLabel_12:
        LCALL   ?DEALLOC_XSTACK8
        CFI CFA_XSP16 add(XSP16, 29)
//  481 
//  482   for ( x = 0; x < percent; x ++ )
        MOV     A,?V0 + 3
        JZ      ??HalLcdDisplayPercentBar_1
//  483   {
//  484     buf[1+x] = '>';
        MOV     R0,A
        MOV     R1,#0x0
        MOV     R2,#0x3e
        MOV     A,#0x1
        LCALL   ?XSTACK_DISP0_8
??HalLcdDisplayPercentBar_2:
        MOV     A,R2
        MOVX    @DPTR,A
        INC     DPTR
        MOV     A,R0
        ADD     A,#-0x1
        DEC     R0
        MOV     A,R1
        ADDC    A,#-0x1
        MOV     R1,A
        ORL     A,R0
        JNZ     ??HalLcdDisplayPercentBar_2
//  485   }
        MOV     ?V0 + 2,?V0 + 3
//  486 
//  487   if ( leftOver >= 5 )
??HalLcdDisplayPercentBar_1:
        MOV     A,R7
        CLR     C
        SUBB    A,#0x5
        JC      ??HalLcdDisplayPercentBar_3
//  488     buf[1+x] = '+';
        MOV     ?V0 + 0,?V0 + 2
        MOV     DPL,?XSP + 0
        MOV     DPH,?XSP + 1
        MOV     A,DPL
        ADD     A,?V0 + 0
        MOV     DPL,A
        MOV     A,DPH
        ADDC    A,#0x0
        MOV     DPH,A
        INC     DPTR
        MOV     A,#0x2b
        MOVX    @DPTR,A
//  489 
//  490   err = (uint32)value;
//  491   _ltoa( err, (uint8*)&buf[13], 10 );
??HalLcdDisplayPercentBar_3:
        ; Setup parameters for call to function _ltoa
        MOV     A,#0xd
        LCALL   ?XSTACK_DISP0_8
        MOV     ?V0 + 0,DPL
        MOV     ?V0 + 1,DPH
        MOV     R0,#?V0 + 0
        LCALL   ?PUSH_XSTACK_I_TWO
        CFI CFA_XSP16 add(XSP16, 31)
        MOV     R1,#0xa
        MOV     A,R6
        MOV     R2,A
        CLR     A
        MOV     R3,A
        LCALL   ??Subroutine8_0 & 0xFFFF
??CrossCallReturnLabel_8:
        LCALL   ?DEALLOC_XSTACK8
        CFI CFA_XSP16 add(XSP16, 29)
//  492 
//  493   HalLcdWriteString( (char*)buf, HAL_LCD_LINE_2 );
        ; Setup parameters for call to function HalLcdWriteString
        MOV     R1,#0x2
        MOV     DPL,?XSP + 0
        MOV     DPH,?XSP + 1
        MOV     R2,DPL
        MOV     R3,DPH
        LCALL   ??HalLcdWriteString?relay
//  494 
//  495 #endif
//  496 
//  497 }
        MOV     A,#0x11
        LCALL   ?DEALLOC_XSTACK8
        CFI CFA_XSP16 add(XSP16, 12)
        MOV     R7,#0x4
        LJMP    ?BANKED_LEAVE_XDATA
        CFI EndBlock cfiBlock49
//  498 
//  499 
//  500 #if (HAL_LCD == TRUE)
//  501 /**************************************************************************************************
//  502  *                                    HARDWARE LCD
//  503  **************************************************************************************************/
//  504 
//  505 /**************************************************************************************************
//  506  * @fn      halLcd_ConfigIO
//  507  *
//  508  * @brief   Configure IO lines needed for LCD control.
//  509  *
//  510  * @param   None
//  511  *
//  512  * @return  None
//  513  **************************************************************************************************/
//  514 static void halLcd_ConfigIO(void)
//  515 {
//  516   /* GPIO configuration */
//  517   //我屏蔽的HAL_CONFIG_IO_OUTPUT(HAL_LCD_MODE_PORT,  HAL_LCD_MODE_PIN,  1);
//  518   //我屏蔽的HAL_CONFIG_IO_OUTPUT(HAL_LCD_RESET_PORT, HAL_LCD_RESET_PIN, 1);
//  519   //我屏蔽的HAL_CONFIG_IO_OUTPUT(HAL_LCD_CS_PORT,    HAL_LCD_CS_PIN,    1);
//  520   //一下几行是我添加的
//  521     #define cs1    P1_5	
//  522     #define rs     P1_6	
//  523     #define sclk   P1_2     
//  524     #define sid    P0_0
//  525         P0SEL &= 0xFE;           //让P00为普通IO口，
//  526         P0DIR |= 0x01;           //让P00为输出
//  527         P1SEL &= 0x9b;           //让P12，P15，P16为普通IO口
//  528         P1DIR |= 0x6C;           //把P12，P15，P16 设置为输出
//  529 }
//  530 
//  531 /**************************************************************************************************
//  532  * @fn      halLcd_ConfigSPI
//  533  *
//  534  * @brief   Configure SPI lines needed for talking to LCD.
//  535  *
//  536  * @param   None
//  537  *
//  538  * @return  None
//  539  **************************************************************************************************/
//  540 //屏蔽掉这个函数
//  541 //static void halLcd_ConfigSPI(void)
//  542 //{
//  543   /* UART/SPI Peripheral configuration */
//  544 
//  545 //   uint8 baud_exponent;
//  546 //   uint8 baud_mantissa;
//  547 
//  548   /* Set SPI on UART 1 alternative 2 */
//  549 //  PERCFG |= 0x02;
//  550 
//  551   /* Configure clk, master out and master in lines */
//  552 //  HAL_CONFIG_IO_PERIPHERAL(HAL_LCD_CLK_PORT,  HAL_LCD_CLK_PIN);
//  553 //  HAL_CONFIG_IO_PERIPHERAL(HAL_LCD_MOSI_PORT, HAL_LCD_MOSI_PIN);
//  554 //  HAL_CONFIG_IO_PERIPHERAL(HAL_LCD_MISO_PORT, HAL_LCD_MISO_PIN);
//  555 
//  556 
//  557   /* Set SPI speed to 1 MHz (the values assume system clk of 32MHz)
//  558    * Confirm on board that this results in 1MHz spi clk.
//  559    */
//  560 //  baud_exponent = 15;
//  561 //  baud_mantissa =  0;
//  562 
//  563   /* Configure SPI */
//  564 //  U1UCR  = 0x80;      /* Flush and goto IDLE state. 8-N-1. */
//  565 //  U1CSR  = 0x00;      /* SPI mode, master. */
//  566 //  U1GCR  = HAL_SPI_TRANSFER_MSB_FIRST | HAL_SPI_CLOCK_PHA_0 | HAL_SPI_CLOCK_POL_LO | baud_exponent;
//  567 //  U1BAUD = baud_mantissa;
//  568 //}
//  569 
//  570 /**************************************************************************************************
//  571  * @fn      HalLcd_HW_Control
//  572  *
//  573  * @brief   Write 1 command to the LCD
//  574  *
//  575  * @param   uint8 cmd - command to be written to the LCD
//  576  *
//  577  * @return  None
//  578  **************************************************************************************************/

        RSEG BANKED_CODE:CODE:NOROOT(0)
//  579 void HalLcd_HW_Control(uint8 cmd)
HalLcd_HW_Control:
        CFI Block cfiBlock50 Using cfiCommon0
        CFI Function HalLcd_HW_Control
        CODE
//  580 {
        FUNCALL HalLcd_HW_Control, HalLcd_HW_WaitUs
        LOCFRAME ISTACK, 0, STACK
        LOCFRAME PSTACK, 0, STACK
        LOCFRAME XSTACK, 9, STACK
        LOCFRAME IOVERLAY, 0, STATIC
        LOCFRAME DOVERLAY, 0, STATIC
        ARGFRAME ISTACK, 0, STACK
        ARGFRAME PSTACK, 0, STACK
        ARGFRAME XSTACK, 9, STACK
        ARGFRAME IOVERLAY, 0, STATIC
        ARGFRAME DOVERLAY, 0, STATIC
        FUNCALL HalLcd_HW_Control, HalLcd_HW_WaitUs
        LOCFRAME ISTACK, 0, STACK
        LOCFRAME PSTACK, 0, STACK
        LOCFRAME XSTACK, 9, STACK
        LOCFRAME IOVERLAY, 0, STATIC
        LOCFRAME DOVERLAY, 0, STATIC
        ARGFRAME ISTACK, 0, STACK
        ARGFRAME PSTACK, 0, STACK
        ARGFRAME XSTACK, 9, STACK
        ARGFRAME IOVERLAY, 0, STATIC
        ARGFRAME DOVERLAY, 0, STATIC
        MOV     A,#-0x9
        LCALL   ?BANKED_ENTER_XDATA
        CFI DPH0 load(1, XDATA, add(CFA_XSP16, literal(-1)))
        CFI DPL0 load(1, XDATA, add(CFA_XSP16, literal(-2)))
        CFI ?BRET_EXT load(1, XDATA, add(CFA_XSP16, literal(-3)))
        CFI ?RET_HIGH load(1, XDATA, add(CFA_XSP16, literal(-4)))
        CFI ?RET_LOW load(1, XDATA, add(CFA_XSP16, literal(-5)))
        CFI R7 load(1, XDATA, add(CFA_XSP16, literal(-6)))
        CFI V0 load(1, XDATA, add(CFA_XSP16, literal(-7)))
        CFI VB load(1, XDATA, add(CFA_XSP16, literal(-8)))
        CFI R6 load(1, XDATA, add(CFA_XSP16, literal(-9)))
        CFI CFA_SP SP+0
        CFI CFA_XSP16 add(XSP16, 9)
        ; Saved register size: 9
        ; Auto size: 0
        MOV     A,R1
        MOV     R7,A
//  581   //我屏蔽的LCD_SPI_BEGIN();
//  582   //我屏蔽的LCD_DO_CONTROL();
//  583   //我屏蔽的LCD_SPI_TX(cmd);
//  584   //我屏蔽的LCD_SPI_WAIT_RXRDY();
//  585   //我屏蔽的LCD_SPI_END();
//  586   
//  587   //以下是我加的
//  588   	unsigned char j;
//  589 
//  590 	cs1 = 0;
        CLR     0x90.5
//  591         rs = 0;
        CLR     0x90.6
//  592 	
//  593 	for (j = 0; j < 8; j++)
        MOV     R6,#0x8
//  594 	      {
//  595 		sclk=0;
??HalLcd_HW_Control_0:
        CLR     0x90.2
//  596                   if(cmd&0x80)  sid = 1;
        MOV     A,R7
        MOV     C,0xE0 /* A   */.7
        JNC     ??HalLcd_HW_Control_1
        SETB    0x80.0
        SJMP    ??HalLcd_HW_Control_2
//  597                 else sid = 0;
??HalLcd_HW_Control_1:
        CLR     0x80.0
//  598                 HalLcd_HW_WaitUs(1);
??HalLcd_HW_Control_2:
        ; Setup parameters for call to function HalLcd_HW_WaitUs
        MOV     R2,#0x1
        MOV     R3,#0x0
        LCALL   ??HalLcd_HW_WaitUs?relay
//  599 		sclk = 1;
        SETB    0x90.2
//  600 		HalLcd_HW_WaitUs(1);
        ; Setup parameters for call to function HalLcd_HW_WaitUs
        MOV     R2,#0x1
        MOV     R3,#0x0
        LCALL   ??HalLcd_HW_WaitUs?relay
//  601 		cmd = cmd << 1;
        MOV     A,R7
        CLR     C
        RLC     A
        MOV     R7,A
//  602 	      }
        DEC     R6
        MOV     A,R6
        JNZ     ??HalLcd_HW_Control_0
//  603 }
        SJMP    ?Subroutine1
        CFI EndBlock cfiBlock50
        REQUIRE _A_P1
        REQUIRE _A_P0
//  604 
//  605 /**************************************************************************************************
//  606  * @fn      HalLcd_HW_Write
//  607  *
//  608  * @brief   Write 1 byte to the LCD
//  609  *
//  610  * @param   uint8 data - data to be written to the LCD
//  611  *
//  612  * @return  None
//  613  **************************************************************************************************/

        RSEG BANKED_CODE:CODE:NOROOT(0)
//  614 void HalLcd_HW_Write(uint8 data)
HalLcd_HW_Write:
        CFI Block cfiBlock51 Using cfiCommon0
        CFI Function HalLcd_HW_Write
        CODE
//  615 {
        ; Saved register size: 0
        ; Auto size: 0
//  616   //我屏蔽的LCD_SPI_BEGIN();
//  617   //我屏蔽的LCD_DO_WRITE();
//  618   //我屏蔽的LCD_SPI_TX(data);
//  619   //我屏蔽的LCD_SPI_WAIT_RXRDY();
//  620   //我屏蔽的LCD_SPI_END();
//  621   
//  622   //以下是我加的
//  623   	char j;
//  624 
//  625 	cs1 = 0;
        CLR     0x90.5
//  626 	rs = 1;
        SETB    0x90.6
//  627 	
//  628 	for (j = 0; j < 8; j++)
        MOV     R0,#0x8
//  629 	{
//  630 		sclk = 0;
??HalLcd_HW_Write_0:
        CLR     0x90.2
//  631                   if(data&0x80)  sid = 1;
        MOV     A,R1
        MOV     C,0xE0 /* A   */.7
        JNC     ??HalLcd_HW_Write_1
        SETB    0x80.0
        SJMP    ??HalLcd_HW_Write_2
//  632                 else sid = 0;
??HalLcd_HW_Write_1:
        CLR     0x80.0
//  633 		sclk = 1;
??HalLcd_HW_Write_2:
        SETB    0x90.2
//  634 		data = data << 1;
        CLR     C
        RLC     A
        MOV     R1,A
//  635 	}
        DEC     R0
        MOV     A,R0
        JNZ     ??HalLcd_HW_Write_0
//  636 }
        LJMP    ?BRET
        CFI EndBlock cfiBlock51
        REQUIRE _A_P1
        REQUIRE _A_P0
//  637 
//  638 /**************************************************************************************************
//  639  * @fn          HalLcd_HW_SetContrast
//  640  *
//  641  * @brief       Set display contrast
//  642  *
//  643  * @param       uint8 value - contrast value
//  644  *
//  645  * @return      none
//  646  **************************************************************************************************/
//  647 //屏蔽掉这个函数
//  648 /*void HalLcd_HW_SetContrast(uint8 value)
//  649 {
//  650   SET_ICONRAM_ADDR(CONTRAST_CTRL_REGISTER);
//  651   HalLcd_HW_Write(value);
//  652 }*/
//  653 
//  654 /**************************************************************************************************
//  655  * @fn      HalLcd_HW_Clear
//  656  *
//  657  * @brief   Clear the HW LCD
//  658  *
//  659  * @param   None
//  660  *
//  661  * @return  None
//  662  **************************************************************************************************/

        RSEG BANKED_CODE:CODE:NOROOT(0)
//  663 void HalLcd_HW_Clear(void)
HalLcd_HW_Clear:
        CFI Block cfiBlock52 Using cfiCommon0
        CFI Function HalLcd_HW_Clear
        CODE
//  664 {
        FUNCALL HalLcd_HW_Clear, HalLcd_HW_Control
        LOCFRAME ISTACK, 0, STACK
        LOCFRAME PSTACK, 0, STACK
        LOCFRAME XSTACK, 9, STACK
        LOCFRAME IOVERLAY, 0, STATIC
        LOCFRAME DOVERLAY, 0, STATIC
        ARGFRAME ISTACK, 0, STACK
        ARGFRAME PSTACK, 0, STACK
        ARGFRAME XSTACK, 9, STACK
        ARGFRAME IOVERLAY, 0, STATIC
        ARGFRAME DOVERLAY, 0, STATIC
        FUNCALL HalLcd_HW_Clear, HalLcd_HW_Control
        LOCFRAME ISTACK, 0, STACK
        LOCFRAME PSTACK, 0, STACK
        LOCFRAME XSTACK, 9, STACK
        LOCFRAME IOVERLAY, 0, STATIC
        LOCFRAME DOVERLAY, 0, STATIC
        ARGFRAME ISTACK, 0, STACK
        ARGFRAME PSTACK, 0, STACK
        ARGFRAME XSTACK, 9, STACK
        ARGFRAME IOVERLAY, 0, STATIC
        ARGFRAME DOVERLAY, 0, STATIC
        FUNCALL HalLcd_HW_Clear, HalLcd_HW_Control
        LOCFRAME ISTACK, 0, STACK
        LOCFRAME PSTACK, 0, STACK
        LOCFRAME XSTACK, 9, STACK
        LOCFRAME IOVERLAY, 0, STATIC
        LOCFRAME DOVERLAY, 0, STATIC
        ARGFRAME ISTACK, 0, STACK
        ARGFRAME PSTACK, 0, STACK
        ARGFRAME XSTACK, 9, STACK
        ARGFRAME IOVERLAY, 0, STATIC
        ARGFRAME DOVERLAY, 0, STATIC
        FUNCALL HalLcd_HW_Clear, HalLcd_HW_Write
        LOCFRAME ISTACK, 0, STACK
        LOCFRAME PSTACK, 0, STACK
        LOCFRAME XSTACK, 9, STACK
        LOCFRAME IOVERLAY, 0, STATIC
        LOCFRAME DOVERLAY, 0, STATIC
        ARGFRAME ISTACK, 0, STACK
        ARGFRAME PSTACK, 0, STACK
        ARGFRAME XSTACK, 9, STACK
        ARGFRAME IOVERLAY, 0, STATIC
        ARGFRAME DOVERLAY, 0, STATIC
        MOV     A,#-0x9
        LCALL   ?BANKED_ENTER_XDATA
        CFI DPH0 load(1, XDATA, add(CFA_XSP16, literal(-1)))
        CFI DPL0 load(1, XDATA, add(CFA_XSP16, literal(-2)))
        CFI ?BRET_EXT load(1, XDATA, add(CFA_XSP16, literal(-3)))
        CFI ?RET_HIGH load(1, XDATA, add(CFA_XSP16, literal(-4)))
        CFI ?RET_LOW load(1, XDATA, add(CFA_XSP16, literal(-5)))
        CFI R7 load(1, XDATA, add(CFA_XSP16, literal(-6)))
        CFI V0 load(1, XDATA, add(CFA_XSP16, literal(-7)))
        CFI VB load(1, XDATA, add(CFA_XSP16, literal(-8)))
        CFI R6 load(1, XDATA, add(CFA_XSP16, literal(-9)))
        CFI CFA_SP SP+0
        CFI CFA_XSP16 add(XSP16, 9)
        ; Saved register size: 9
        ; Auto size: 0
//  665    //我屏蔽的uint8 n;
//  666 
//  667    //我屏蔽的SET_DDRAM_ADDR(0x00);
//  668    //我屏蔽的or (n = 0; n < (LCD_MAX_LINE_COUNT * HAL_LCD_MAX_CHARS); n++)
//  669    //我屏蔽的{
//  670      //我屏蔽的HalLcd_HW_Write(' ');
//  671    //我屏蔽的}
//  672   
//  673   //以下是我加的
//  674     	int i,j;
//  675 	for (i = 0; i < 9; i++)
        MOV     R6,#0x0
        MOV     R7,#0x0
//  676 	{
//  677           cs1 = 0;
??HalLcd_HW_Clear_0:
        CLR     0x90.5
//  678 		HalLcd_HW_Control(0xb0+i);
        ; Setup parameters for call to function HalLcd_HW_Control
        MOV     A,R6
        ADD     A,#-0x50
        MOV     R1,A
        LCALL   ??HalLcd_HW_Control?relay
//  679 		HalLcd_HW_Control(0x10);
        ; Setup parameters for call to function HalLcd_HW_Control
        MOV     R1,#0x10
        LCALL   ??HalLcd_HW_Control?relay
//  680 		HalLcd_HW_Control(0x00);
        ; Setup parameters for call to function HalLcd_HW_Control
        MOV     R1,#0x0
        LCALL   ??HalLcd_HW_Control?relay
//  681 		for (j = 0; j < 132; j++)
        MOV     ?V0 + 0,#-0x7c
//  682 		{
//  683 			HalLcd_HW_Write(0x00);
??HalLcd_HW_Clear_1:
        ; Setup parameters for call to function HalLcd_HW_Write
        MOV     R1,#0x0
        LCALL   ??HalLcd_HW_Write?relay
//  684 		}
        DEC     ?V0 + 0
        MOV     A,?V0 + 0
        JNZ     ??HalLcd_HW_Clear_1
//  685 	}
        LCALL   ?Subroutine7 & 0xFFFF
??CrossCallReturnLabel_3:
        SUBB    A,#0x9
        MOV     A,R7
        SUBB    A,#0x0
        MOV     C,0xD0 /* PSW */.2
        XRL     A,PSW
        RLC     A
        JC      ??HalLcd_HW_Clear_0
        CFI EndBlock cfiBlock52
//  686 }
        REQUIRE ?Subroutine1
        REQUIRE _A_P1
        ; // Fall through to label ?Subroutine1

        RSEG BANKED_CODE:CODE:NOROOT(0)
?Subroutine1:
        CFI Block cfiBlock53 Using cfiCommon0
        CFI NoFunction
        CFI CFA_SP SP+0
        CFI CFA_XSP16 add(XSP16, 9)
        CFI VB load(1, XDATA, add(CFA_XSP16, literal(-8)))
        CFI DPL0 load(1, XDATA, add(CFA_XSP16, literal(-2)))
        CFI DPH0 load(1, XDATA, add(CFA_XSP16, literal(-1)))
        CFI R6 load(1, XDATA, add(CFA_XSP16, literal(-9)))
        CFI R7 load(1, XDATA, add(CFA_XSP16, literal(-6)))
        CFI V0 load(1, XDATA, add(CFA_XSP16, literal(-7)))
        CFI ?BRET_EXT load(1, XDATA, add(CFA_XSP16, literal(-3)))
        CFI ?RET_HIGH load(1, XDATA, add(CFA_XSP16, literal(-4)))
        CFI ?RET_LOW load(1, XDATA, add(CFA_XSP16, literal(-5)))
        MOV     R7,#0x1
        LJMP    ?BANKED_LEAVE_XDATA
        CFI EndBlock cfiBlock53
//  687 
//  688 /**************************************************************************************************
//  689  * @fn      HalLcd_HW_Init
//  690  *
//  691  * @brief   Initilize HW LCD Driver.
//  692  *
//  693  * @param   None
//  694  *
//  695  * @return  None
//  696  **************************************************************************************************/

        RSEG BANKED_CODE:CODE:NOROOT(0)
//  697 void HalLcd_HW_Init(void)
HalLcd_HW_Init:
        CFI Block cfiBlock54 Using cfiCommon0
        CFI Function HalLcd_HW_Init
        CODE
//  698 {
        FUNCALL HalLcd_HW_Init, HalLcd_HW_WaitUs
        LOCFRAME ISTACK, 2, STACK
        LOCFRAME PSTACK, 0, STACK
        LOCFRAME XSTACK, 0, STACK
        LOCFRAME IOVERLAY, 0, STATIC
        LOCFRAME DOVERLAY, 0, STATIC
        ARGFRAME ISTACK, 2, STACK
        ARGFRAME PSTACK, 0, STACK
        ARGFRAME XSTACK, 0, STACK
        ARGFRAME IOVERLAY, 0, STATIC
        ARGFRAME DOVERLAY, 0, STATIC
        FUNCALL HalLcd_HW_Init, HalLcd_HW_Control
        LOCFRAME ISTACK, 2, STACK
        LOCFRAME PSTACK, 0, STACK
        LOCFRAME XSTACK, 0, STACK
        LOCFRAME IOVERLAY, 0, STATIC
        LOCFRAME DOVERLAY, 0, STATIC
        ARGFRAME ISTACK, 2, STACK
        ARGFRAME PSTACK, 0, STACK
        ARGFRAME XSTACK, 0, STACK
        ARGFRAME IOVERLAY, 0, STATIC
        ARGFRAME DOVERLAY, 0, STATIC
        FUNCALL HalLcd_HW_Init, HalLcd_HW_WaitUs
        LOCFRAME ISTACK, 2, STACK
        LOCFRAME PSTACK, 0, STACK
        LOCFRAME XSTACK, 0, STACK
        LOCFRAME IOVERLAY, 0, STATIC
        LOCFRAME DOVERLAY, 0, STATIC
        ARGFRAME ISTACK, 2, STACK
        ARGFRAME PSTACK, 0, STACK
        ARGFRAME XSTACK, 0, STACK
        ARGFRAME IOVERLAY, 0, STATIC
        ARGFRAME DOVERLAY, 0, STATIC
        FUNCALL HalLcd_HW_Init, HalLcd_HW_Control
        LOCFRAME ISTACK, 2, STACK
        LOCFRAME PSTACK, 0, STACK
        LOCFRAME XSTACK, 0, STACK
        LOCFRAME IOVERLAY, 0, STATIC
        LOCFRAME DOVERLAY, 0, STATIC
        ARGFRAME ISTACK, 2, STACK
        ARGFRAME PSTACK, 0, STACK
        ARGFRAME XSTACK, 0, STACK
        ARGFRAME IOVERLAY, 0, STATIC
        ARGFRAME DOVERLAY, 0, STATIC
        FUNCALL HalLcd_HW_Init, HalLcd_HW_WaitUs
        LOCFRAME ISTACK, 2, STACK
        LOCFRAME PSTACK, 0, STACK
        LOCFRAME XSTACK, 0, STACK
        LOCFRAME IOVERLAY, 0, STATIC
        LOCFRAME DOVERLAY, 0, STATIC
        ARGFRAME ISTACK, 2, STACK
        ARGFRAME PSTACK, 0, STACK
        ARGFRAME XSTACK, 0, STACK
        ARGFRAME IOVERLAY, 0, STATIC
        ARGFRAME DOVERLAY, 0, STATIC
        FUNCALL HalLcd_HW_Init, HalLcd_HW_Control
        LOCFRAME ISTACK, 2, STACK
        LOCFRAME PSTACK, 0, STACK
        LOCFRAME XSTACK, 0, STACK
        LOCFRAME IOVERLAY, 0, STATIC
        LOCFRAME DOVERLAY, 0, STATIC
        ARGFRAME ISTACK, 2, STACK
        ARGFRAME PSTACK, 0, STACK
        ARGFRAME XSTACK, 0, STACK
        ARGFRAME IOVERLAY, 0, STATIC
        ARGFRAME DOVERLAY, 0, STATIC
        FUNCALL HalLcd_HW_Init, HalLcd_HW_WaitUs
        LOCFRAME ISTACK, 2, STACK
        LOCFRAME PSTACK, 0, STACK
        LOCFRAME XSTACK, 0, STACK
        LOCFRAME IOVERLAY, 0, STATIC
        LOCFRAME DOVERLAY, 0, STATIC
        ARGFRAME ISTACK, 2, STACK
        ARGFRAME PSTACK, 0, STACK
        ARGFRAME XSTACK, 0, STACK
        ARGFRAME IOVERLAY, 0, STATIC
        ARGFRAME DOVERLAY, 0, STATIC
        FUNCALL HalLcd_HW_Init, HalLcd_HW_Control
        LOCFRAME ISTACK, 2, STACK
        LOCFRAME PSTACK, 0, STACK
        LOCFRAME XSTACK, 0, STACK
        LOCFRAME IOVERLAY, 0, STATIC
        LOCFRAME DOVERLAY, 0, STATIC
        ARGFRAME ISTACK, 2, STACK
        ARGFRAME PSTACK, 0, STACK
        ARGFRAME XSTACK, 0, STACK
        ARGFRAME IOVERLAY, 0, STATIC
        ARGFRAME DOVERLAY, 0, STATIC
        FUNCALL HalLcd_HW_Init, HalLcd_HW_WaitUs
        LOCFRAME ISTACK, 2, STACK
        LOCFRAME PSTACK, 0, STACK
        LOCFRAME XSTACK, 0, STACK
        LOCFRAME IOVERLAY, 0, STATIC
        LOCFRAME DOVERLAY, 0, STATIC
        ARGFRAME ISTACK, 2, STACK
        ARGFRAME PSTACK, 0, STACK
        ARGFRAME XSTACK, 0, STACK
        ARGFRAME IOVERLAY, 0, STATIC
        ARGFRAME DOVERLAY, 0, STATIC
        FUNCALL HalLcd_HW_Init, HalLcd_HW_Control
        LOCFRAME ISTACK, 2, STACK
        LOCFRAME PSTACK, 0, STACK
        LOCFRAME XSTACK, 0, STACK
        LOCFRAME IOVERLAY, 0, STATIC
        LOCFRAME DOVERLAY, 0, STATIC
        ARGFRAME ISTACK, 2, STACK
        ARGFRAME PSTACK, 0, STACK
        ARGFRAME XSTACK, 0, STACK
        ARGFRAME IOVERLAY, 0, STATIC
        ARGFRAME DOVERLAY, 0, STATIC
        FUNCALL HalLcd_HW_Init, HalLcd_HW_WaitUs
        LOCFRAME ISTACK, 2, STACK
        LOCFRAME PSTACK, 0, STACK
        LOCFRAME XSTACK, 0, STACK
        LOCFRAME IOVERLAY, 0, STATIC
        LOCFRAME DOVERLAY, 0, STATIC
        ARGFRAME ISTACK, 2, STACK
        ARGFRAME PSTACK, 0, STACK
        ARGFRAME XSTACK, 0, STACK
        ARGFRAME IOVERLAY, 0, STATIC
        ARGFRAME DOVERLAY, 0, STATIC
        FUNCALL HalLcd_HW_Init, HalLcd_HW_Control
        LOCFRAME ISTACK, 2, STACK
        LOCFRAME PSTACK, 0, STACK
        LOCFRAME XSTACK, 0, STACK
        LOCFRAME IOVERLAY, 0, STATIC
        LOCFRAME DOVERLAY, 0, STATIC
        ARGFRAME ISTACK, 2, STACK
        ARGFRAME PSTACK, 0, STACK
        ARGFRAME XSTACK, 0, STACK
        ARGFRAME IOVERLAY, 0, STATIC
        ARGFRAME DOVERLAY, 0, STATIC
        FUNCALL HalLcd_HW_Init, HalLcd_HW_WaitUs
        LOCFRAME ISTACK, 2, STACK
        LOCFRAME PSTACK, 0, STACK
        LOCFRAME XSTACK, 0, STACK
        LOCFRAME IOVERLAY, 0, STATIC
        LOCFRAME DOVERLAY, 0, STATIC
        ARGFRAME ISTACK, 2, STACK
        ARGFRAME PSTACK, 0, STACK
        ARGFRAME XSTACK, 0, STACK
        ARGFRAME IOVERLAY, 0, STATIC
        ARGFRAME DOVERLAY, 0, STATIC
        FUNCALL HalLcd_HW_Init, HalLcd_HW_Control
        LOCFRAME ISTACK, 2, STACK
        LOCFRAME PSTACK, 0, STACK
        LOCFRAME XSTACK, 0, STACK
        LOCFRAME IOVERLAY, 0, STATIC
        LOCFRAME DOVERLAY, 0, STATIC
        ARGFRAME ISTACK, 2, STACK
        ARGFRAME PSTACK, 0, STACK
        ARGFRAME XSTACK, 0, STACK
        ARGFRAME IOVERLAY, 0, STATIC
        ARGFRAME DOVERLAY, 0, STATIC
        FUNCALL HalLcd_HW_Init, HalLcd_HW_WaitUs
        LOCFRAME ISTACK, 2, STACK
        LOCFRAME PSTACK, 0, STACK
        LOCFRAME XSTACK, 0, STACK
        LOCFRAME IOVERLAY, 0, STATIC
        LOCFRAME DOVERLAY, 0, STATIC
        ARGFRAME ISTACK, 2, STACK
        ARGFRAME PSTACK, 0, STACK
        ARGFRAME XSTACK, 0, STACK
        ARGFRAME IOVERLAY, 0, STATIC
        ARGFRAME DOVERLAY, 0, STATIC
        FUNCALL HalLcd_HW_Init, HalLcd_HW_Control
        LOCFRAME ISTACK, 2, STACK
        LOCFRAME PSTACK, 0, STACK
        LOCFRAME XSTACK, 0, STACK
        LOCFRAME IOVERLAY, 0, STATIC
        LOCFRAME DOVERLAY, 0, STATIC
        ARGFRAME ISTACK, 2, STACK
        ARGFRAME PSTACK, 0, STACK
        ARGFRAME XSTACK, 0, STACK
        ARGFRAME IOVERLAY, 0, STATIC
        ARGFRAME DOVERLAY, 0, STATIC
        FUNCALL HalLcd_HW_Init, HalLcd_HW_WaitUs
        LOCFRAME ISTACK, 2, STACK
        LOCFRAME PSTACK, 0, STACK
        LOCFRAME XSTACK, 0, STACK
        LOCFRAME IOVERLAY, 0, STATIC
        LOCFRAME DOVERLAY, 0, STATIC
        ARGFRAME ISTACK, 2, STACK
        ARGFRAME PSTACK, 0, STACK
        ARGFRAME XSTACK, 0, STACK
        ARGFRAME IOVERLAY, 0, STATIC
        ARGFRAME DOVERLAY, 0, STATIC
        FUNCALL HalLcd_HW_Init, HalLcd_HW_Control
        LOCFRAME ISTACK, 2, STACK
        LOCFRAME PSTACK, 0, STACK
        LOCFRAME XSTACK, 0, STACK
        LOCFRAME IOVERLAY, 0, STATIC
        LOCFRAME DOVERLAY, 0, STATIC
        ARGFRAME ISTACK, 2, STACK
        ARGFRAME PSTACK, 0, STACK
        ARGFRAME XSTACK, 0, STACK
        ARGFRAME IOVERLAY, 0, STATIC
        ARGFRAME DOVERLAY, 0, STATIC
        FUNCALL HalLcd_HW_Init, HalLcd_HW_WaitUs
        LOCFRAME ISTACK, 2, STACK
        LOCFRAME PSTACK, 0, STACK
        LOCFRAME XSTACK, 0, STACK
        LOCFRAME IOVERLAY, 0, STATIC
        LOCFRAME DOVERLAY, 0, STATIC
        ARGFRAME ISTACK, 2, STACK
        ARGFRAME PSTACK, 0, STACK
        ARGFRAME XSTACK, 0, STACK
        ARGFRAME IOVERLAY, 0, STATIC
        ARGFRAME DOVERLAY, 0, STATIC
        FUNCALL HalLcd_HW_Init, HalLcd_HW_Control
        LOCFRAME ISTACK, 2, STACK
        LOCFRAME PSTACK, 0, STACK
        LOCFRAME XSTACK, 0, STACK
        LOCFRAME IOVERLAY, 0, STATIC
        LOCFRAME DOVERLAY, 0, STATIC
        ARGFRAME ISTACK, 2, STACK
        ARGFRAME PSTACK, 0, STACK
        ARGFRAME XSTACK, 0, STACK
        ARGFRAME IOVERLAY, 0, STATIC
        ARGFRAME DOVERLAY, 0, STATIC
        FUNCALL HalLcd_HW_Init, HalLcd_HW_WaitUs
        LOCFRAME ISTACK, 2, STACK
        LOCFRAME PSTACK, 0, STACK
        LOCFRAME XSTACK, 0, STACK
        LOCFRAME IOVERLAY, 0, STATIC
        LOCFRAME DOVERLAY, 0, STATIC
        ARGFRAME ISTACK, 2, STACK
        ARGFRAME PSTACK, 0, STACK
        ARGFRAME XSTACK, 0, STACK
        ARGFRAME IOVERLAY, 0, STATIC
        ARGFRAME DOVERLAY, 0, STATIC
        FUNCALL HalLcd_HW_Init, HalLcd_HW_Control
        LOCFRAME ISTACK, 2, STACK
        LOCFRAME PSTACK, 0, STACK
        LOCFRAME XSTACK, 0, STACK
        LOCFRAME IOVERLAY, 0, STATIC
        LOCFRAME DOVERLAY, 0, STATIC
        ARGFRAME ISTACK, 2, STACK
        ARGFRAME PSTACK, 0, STACK
        ARGFRAME XSTACK, 0, STACK
        ARGFRAME IOVERLAY, 0, STATIC
        ARGFRAME DOVERLAY, 0, STATIC
        FUNCALL HalLcd_HW_Init, HalLcd_HW_WaitUs
        LOCFRAME ISTACK, 2, STACK
        LOCFRAME PSTACK, 0, STACK
        LOCFRAME XSTACK, 0, STACK
        LOCFRAME IOVERLAY, 0, STATIC
        LOCFRAME DOVERLAY, 0, STATIC
        ARGFRAME ISTACK, 2, STACK
        ARGFRAME PSTACK, 0, STACK
        ARGFRAME XSTACK, 0, STACK
        ARGFRAME IOVERLAY, 0, STATIC
        ARGFRAME DOVERLAY, 0, STATIC
        FUNCALL HalLcd_HW_Init, HalLcd_HW_Control
        LOCFRAME ISTACK, 2, STACK
        LOCFRAME PSTACK, 0, STACK
        LOCFRAME XSTACK, 0, STACK
        LOCFRAME IOVERLAY, 0, STATIC
        LOCFRAME DOVERLAY, 0, STATIC
        ARGFRAME ISTACK, 2, STACK
        ARGFRAME PSTACK, 0, STACK
        ARGFRAME XSTACK, 0, STACK
        ARGFRAME IOVERLAY, 0, STATIC
        ARGFRAME DOVERLAY, 0, STATIC
        FUNCALL HalLcd_HW_Init, HalLcd_HW_Clear
        LOCFRAME ISTACK, 2, STACK
        LOCFRAME PSTACK, 0, STACK
        LOCFRAME XSTACK, 0, STACK
        LOCFRAME IOVERLAY, 0, STATIC
        LOCFRAME DOVERLAY, 0, STATIC
        ARGFRAME ISTACK, 2, STACK
        ARGFRAME PSTACK, 0, STACK
        ARGFRAME XSTACK, 0, STACK
        ARGFRAME IOVERLAY, 0, STATIC
        ARGFRAME DOVERLAY, 0, STATIC
        PUSH    DPL
        CFI DPL0 Frame(CFA_SP, 4)
        CFI CFA_SP SP+-4
        PUSH    DPH
        CFI DPH0 Frame(CFA_SP, 5)
        CFI CFA_SP SP+-5
        ; Saved register size: 2
        ; Auto size: 0
//  699   //把这个函数体屏蔽
//  700   /* Initialize LCD IO lines */
//  701   //我屏蔽的halLcd_ConfigIO();
//  702 
//  703   /* Initialize SPI */
//  704   //我屏蔽的halLcd_ConfigSPI();
//  705 
//  706   /* Perform reset */
//  707   //我屏蔽的LCD_ACTIVATE_RESET();
//  708   //我屏蔽的HalLcd_HW_WaitUs(15000); // 15 ms
//  709   //我屏蔽的LCD_RELEASE_RESET();
//  710   //我屏蔽的HalLcd_HW_WaitUs(15); // 15 us
//  711 
//  712   /* Perform the initialization sequence */
//  713   //我屏蔽的FUNCTION_SET(CGRAM | COM_FORWARD | THREE_LINE);
//  714 
//  715   /* Set contrast */
//  716   //我屏蔽的HalLcd_HW_SetContrast(15);
//  717 
//  718   /* Set power */
//  719   //我屏蔽的SET_POWER_SAVE_MODE(OSC_OFF | POWER_SAVE_ON);
//  720   //我屏蔽的SET_POWER_CTRL(VOLTAGE_DIVIDER_ON | CONVERTER_AND_REG_ON);
//  721   //我屏蔽的SET_BIAS_CTRL(BIAS_1_5);
//  722   //我屏蔽的HalLcd_HW_WaitUs(21000);// 21 ms
//  723 
//  724   /* Clear the display */
//  725   //我屏蔽的HalLcd_HW_Clear();
//  726   //我屏蔽的HalLcd_HW_ClearAllSpecChars();
//  727   //我屏蔽的SET_DISPLAY_CTRL(DISPLAY_CTRL_ON | DISPLAY_CTRL_BLINK_OFF | DISPLAY_CTRL_CURSOR_OFF);
//  728 //以下是我加的
//  729 
//  730           
//  731     HalLcd_HW_WaitUs(20);
        ; Setup parameters for call to function HalLcd_HW_WaitUs
        MOV     R2,#0x14
        MOV     R3,#0x0
        LCALL   ??HalLcd_HW_WaitUs?relay
//  732     halLcd_ConfigIO();
        ANL     0xf3,#0xfe
        ORL     0xfd,#0x1
        ANL     0xf4,#0x9b
        ORL     0xfe,#0x6c
//  733         
//  734 	HalLcd_HW_Control(0xe2);          //软复位
        ; Setup parameters for call to function HalLcd_HW_Control
        MOV     R1,#-0x1e
        LCALL   ??Subroutine13_0 & 0xFFFF
//  735     HalLcd_HW_WaitUs(15);
//  736         HalLcd_HW_Control(0x2c);          //升压步聚1
??CrossCallReturnLabel_23:
        ; Setup parameters for call to function HalLcd_HW_Control
        MOV     R1,#0x2c
        LCALL   ??Subroutine13_0 & 0xFFFF
//  737     HalLcd_HW_WaitUs(15);
//  738 	HalLcd_HW_Control(0x2e);          //升压步聚2
??CrossCallReturnLabel_24:
        ; Setup parameters for call to function HalLcd_HW_Control
        MOV     R1,#0x2e
        LCALL   ??Subroutine13_0 & 0xFFFF
//  739     HalLcd_HW_WaitUs(15);
//  740 	HalLcd_HW_Control(0x2f);          //升压步聚
??CrossCallReturnLabel_25:
        ; Setup parameters for call to function HalLcd_HW_Control
        MOV     R1,#0x2f
        LCALL   ??Subroutine13_0 & 0xFFFF
//  741     HalLcd_HW_WaitUs(15);
//  742 	HalLcd_HW_Control(0x23);          //粗调对比度，可设置范围20～27
??CrossCallReturnLabel_26:
        ; Setup parameters for call to function HalLcd_HW_Control
        MOV     R1,#0x23
        LCALL   ??Subroutine13_0 & 0xFFFF
//  743     HalLcd_HW_WaitUs(15);
//  744         HalLcd_HW_Control(0x81);          //微调对比度
??CrossCallReturnLabel_27:
        ; Setup parameters for call to function HalLcd_HW_Control
        MOV     R1,#-0x7f
        LCALL   ??Subroutine13_0 & 0xFFFF
//  745     HalLcd_HW_WaitUs(15);
//  746         HalLcd_HW_Control(0x1f); 
??CrossCallReturnLabel_28:
        ; Setup parameters for call to function HalLcd_HW_Control
        MOV     R1,#0x1f
        LCALL   ??Subroutine13_0 & 0xFFFF
//  747     HalLcd_HW_WaitUs(15);
//  748         HalLcd_HW_Control(0xa1);
??CrossCallReturnLabel_29:
        ; Setup parameters for call to function HalLcd_HW_Control
        MOV     R1,#-0x5f
        LCALL   ??Subroutine13_0 & 0xFFFF
//  749     HalLcd_HW_WaitUs(15);
//  750         HalLcd_HW_Control(0xc8);
??CrossCallReturnLabel_30:
        ; Setup parameters for call to function HalLcd_HW_Control
        MOV     R1,#-0x38
        LCALL   ??Subroutine13_0 & 0xFFFF
//  751     HalLcd_HW_WaitUs(15);
//  752 	HalLcd_HW_Control(0xa0);          //行扫描顺序：从上到下
??CrossCallReturnLabel_31:
        ; Setup parameters for call to function HalLcd_HW_Control
        MOV     R1,#-0x60
        LCALL   ??Subroutine13_0 & 0xFFFF
//  753     HalLcd_HW_WaitUs(15);
//  754         HalLcd_HW_Control(0x40);          //升压电路设置指令代码
??CrossCallReturnLabel_32:
        ; Setup parameters for call to function HalLcd_HW_Control
        MOV     R1,#0x40
        LCALL   ??Subroutine13_0 & 0xFFFF
//  755     HalLcd_HW_WaitUs(15);
//  756         HalLcd_HW_Control(0xaf);          //开显示 
??CrossCallReturnLabel_33:
        ; Setup parameters for call to function HalLcd_HW_Control
        MOV     R1,#-0x51
        LCALL   ??HalLcd_HW_Control?relay
//  757         HalLcd_HW_Clear(); 
        ; Setup parameters for call to function HalLcd_HW_Clear
        LCALL   ??HalLcd_HW_Clear?relay
//  758 }
        LJMP    ?Subroutine0 & 0xFFFF
        CFI EndBlock cfiBlock54
        REQUIRE P0SEL
        REQUIRE P0DIR
        REQUIRE P1SEL
        REQUIRE P1DIR
//  759 
//  760 /**************************************************************************************************
//  761  * @fn      HalLcd_HW_ClearAllSpecChars
//  762  *
//  763  * @brief   Clear all special chars
//  764  *
//  765  * @param   None
//  766  *
//  767  * @return  None
//  768  **************************************************************************************************/
//  769 //屏蔽掉这个函数
//  770 /*void HalLcd_HW_ClearAllSpecChars(void)
//  771 {
//  772   uint8 n = 0;
//  773 
//  774   SET_GCRAM_CHAR(0);
//  775   for (n = 0; n < (8 * 8); n++)
//  776   {
//  777     HalLcd_HW_Write(0x00);
//  778   }
//  779 }*/
//  780 
//  781 
//  782 /*      这个函数是我加的
//  783 作用    设置LCD 文本显示的其实行和列
//  784 参数1   line,范围:0~7,即能够显示的行为1~8行，也就是lcd手册里提到的page
//  785 参数2   col,范围:0~127,即lcd的总列数，显示的起始位置可以设置到每一列
//  786 */

        RSEG BANKED_CODE:CODE:NOROOT(0)
//  787 void set_ddram_line_col(uint8 line,uint8 col)
set_ddram_line_col:
        CFI Block cfiBlock55 Using cfiCommon0
        CFI Function set_ddram_line_col
        CODE
//  788 {
        FUNCALL set_ddram_line_col, HalLcd_HW_Control
        LOCFRAME ISTACK, 0, STACK
        LOCFRAME PSTACK, 0, STACK
        LOCFRAME XSTACK, 9, STACK
        LOCFRAME IOVERLAY, 0, STATIC
        LOCFRAME DOVERLAY, 0, STATIC
        ARGFRAME ISTACK, 0, STACK
        ARGFRAME PSTACK, 0, STACK
        ARGFRAME XSTACK, 9, STACK
        ARGFRAME IOVERLAY, 0, STATIC
        ARGFRAME DOVERLAY, 0, STATIC
        FUNCALL set_ddram_line_col, HalLcd_HW_WaitUs
        LOCFRAME ISTACK, 0, STACK
        LOCFRAME PSTACK, 0, STACK
        LOCFRAME XSTACK, 9, STACK
        LOCFRAME IOVERLAY, 0, STATIC
        LOCFRAME DOVERLAY, 0, STATIC
        ARGFRAME ISTACK, 0, STACK
        ARGFRAME PSTACK, 0, STACK
        ARGFRAME XSTACK, 9, STACK
        ARGFRAME IOVERLAY, 0, STATIC
        ARGFRAME DOVERLAY, 0, STATIC
        FUNCALL set_ddram_line_col, HalLcd_HW_Control
        LOCFRAME ISTACK, 0, STACK
        LOCFRAME PSTACK, 0, STACK
        LOCFRAME XSTACK, 9, STACK
        LOCFRAME IOVERLAY, 0, STATIC
        LOCFRAME DOVERLAY, 0, STATIC
        ARGFRAME ISTACK, 0, STACK
        ARGFRAME PSTACK, 0, STACK
        ARGFRAME XSTACK, 9, STACK
        ARGFRAME IOVERLAY, 0, STATIC
        ARGFRAME DOVERLAY, 0, STATIC
        FUNCALL set_ddram_line_col, HalLcd_HW_WaitUs
        LOCFRAME ISTACK, 0, STACK
        LOCFRAME PSTACK, 0, STACK
        LOCFRAME XSTACK, 9, STACK
        LOCFRAME IOVERLAY, 0, STATIC
        LOCFRAME DOVERLAY, 0, STATIC
        ARGFRAME ISTACK, 0, STACK
        ARGFRAME PSTACK, 0, STACK
        ARGFRAME XSTACK, 9, STACK
        ARGFRAME IOVERLAY, 0, STATIC
        ARGFRAME DOVERLAY, 0, STATIC
        FUNCALL set_ddram_line_col, HalLcd_HW_Control
        LOCFRAME ISTACK, 0, STACK
        LOCFRAME PSTACK, 0, STACK
        LOCFRAME XSTACK, 9, STACK
        LOCFRAME IOVERLAY, 0, STATIC
        LOCFRAME DOVERLAY, 0, STATIC
        ARGFRAME ISTACK, 0, STACK
        ARGFRAME PSTACK, 0, STACK
        ARGFRAME XSTACK, 9, STACK
        ARGFRAME IOVERLAY, 0, STATIC
        ARGFRAME DOVERLAY, 0, STATIC
        FUNCALL set_ddram_line_col, HalLcd_HW_WaitUs
        LOCFRAME ISTACK, 0, STACK
        LOCFRAME PSTACK, 0, STACK
        LOCFRAME XSTACK, 9, STACK
        LOCFRAME IOVERLAY, 0, STATIC
        LOCFRAME DOVERLAY, 0, STATIC
        ARGFRAME ISTACK, 0, STACK
        ARGFRAME PSTACK, 0, STACK
        ARGFRAME XSTACK, 9, STACK
        ARGFRAME IOVERLAY, 0, STATIC
        ARGFRAME DOVERLAY, 0, STATIC
        MOV     A,#-0x9
        LCALL   ?BANKED_ENTER_XDATA
        CFI DPH0 load(1, XDATA, add(CFA_XSP16, literal(-1)))
        CFI DPL0 load(1, XDATA, add(CFA_XSP16, literal(-2)))
        CFI ?BRET_EXT load(1, XDATA, add(CFA_XSP16, literal(-3)))
        CFI ?RET_HIGH load(1, XDATA, add(CFA_XSP16, literal(-4)))
        CFI ?RET_LOW load(1, XDATA, add(CFA_XSP16, literal(-5)))
        CFI R7 load(1, XDATA, add(CFA_XSP16, literal(-6)))
        CFI V0 load(1, XDATA, add(CFA_XSP16, literal(-7)))
        CFI VB load(1, XDATA, add(CFA_XSP16, literal(-8)))
        CFI R6 load(1, XDATA, add(CFA_XSP16, literal(-9)))
        CFI CFA_SP SP+0
        CFI CFA_XSP16 add(XSP16, 9)
        ; Saved register size: 9
        ; Auto size: 0
        MOV     A,R1
        MOV     R6,A
        MOV     A,R2
        MOV     R7,A
//  789 
//  790   uint8 page,coll,coll_l,coll_h;
//  791   page = line;
//  792   coll = col;
//  793   coll_h = coll>>4;
//  794   coll_l = coll&0x0f;
//  795   HalLcd_HW_Control(0xB0+page);
        ; Setup parameters for call to function HalLcd_HW_Control
        MOV     A,#-0x50
        ADD     A,R6
        LCALL   ?Subroutine6 & 0xFFFF
//  796   HalLcd_HW_WaitUs(15); // 15 us
//  797   HalLcd_HW_Control(0x10+coll_h);
??CrossCallReturnLabel_20:
        ; Setup parameters for call to function HalLcd_HW_Control
        MOV     A,R7
        SWAP    A
        ANL     A,#0xf
        ADD     A,#0x10
        LCALL   ?Subroutine6 & 0xFFFF
//  798   HalLcd_HW_WaitUs(15); // 15 us
//  799   HalLcd_HW_Control(0x00+coll_l);
??CrossCallReturnLabel_21:
        ; Setup parameters for call to function HalLcd_HW_Control
        MOV     A,#0xf
        ANL     A,R7
        LCALL   ?Subroutine6 & 0xFFFF
//  800   HalLcd_HW_WaitUs(15); // 15 us
//  801 }
??CrossCallReturnLabel_22:
        SJMP    ?Subroutine1
        CFI EndBlock cfiBlock55

        RSEG BANKED_CODE:CODE:NOROOT(0)
?Subroutine6:
        CFI Block cfiCond56 Using cfiCommon0
        CFI NoFunction
        CFI Conditional ??CrossCallReturnLabel_20
        CFI R6 load(1, XDATA, add(CFA_XSP16, literal(-9)))
        CFI VB load(1, XDATA, add(CFA_XSP16, literal(-8)))
        CFI V0 load(1, XDATA, add(CFA_XSP16, literal(-7)))
        CFI R7 load(1, XDATA, add(CFA_XSP16, literal(-6)))
        CFI ?RET_LOW load(1, XDATA, add(CFA_XSP16, literal(-5)))
        CFI ?RET_HIGH load(1, XDATA, add(CFA_XSP16, literal(-4)))
        CFI ?BRET_EXT load(1, XDATA, add(CFA_XSP16, literal(-3)))
        CFI DPL0 load(1, XDATA, add(CFA_XSP16, literal(-2)))
        CFI DPH0 load(1, XDATA, add(CFA_XSP16, literal(-1)))
        CFI CFA_SP SP+0
        CFI CFA_XSP16 add(XSP16, 9)
        CFI Block cfiCond57 Using cfiCommon0
        CFI (cfiCond57) NoFunction
        CFI (cfiCond57) Conditional ??CrossCallReturnLabel_21
        CFI (cfiCond57) R6 load(1, XDATA, add(CFA_XSP16, literal(-9)))
        CFI (cfiCond57) VB load(1, XDATA, add(CFA_XSP16, literal(-8)))
        CFI (cfiCond57) V0 load(1, XDATA, add(CFA_XSP16, literal(-7)))
        CFI (cfiCond57) R7 load(1, XDATA, add(CFA_XSP16, literal(-6)))
        CFI (cfiCond57) ?RET_LOW load(1, XDATA, add(CFA_XSP16, literal(-5)))
        CFI (cfiCond57) ?RET_HIGH load(1, XDATA, add(CFA_XSP16, literal(-4)))
        CFI (cfiCond57) ?BRET_EXT load(1, XDATA, add(CFA_XSP16, literal(-3)))
        CFI (cfiCond57) DPL0 load(1, XDATA, add(CFA_XSP16, literal(-2)))
        CFI (cfiCond57) DPH0 load(1, XDATA, add(CFA_XSP16, literal(-1)))
        CFI (cfiCond57) CFA_SP SP+0
        CFI (cfiCond57) CFA_XSP16 add(XSP16, 9)
        CFI Block cfiCond58 Using cfiCommon0
        CFI (cfiCond58) NoFunction
        CFI (cfiCond58) Conditional ??CrossCallReturnLabel_22
        CFI (cfiCond58) R6 load(1, XDATA, add(CFA_XSP16, literal(-9)))
        CFI (cfiCond58) VB load(1, XDATA, add(CFA_XSP16, literal(-8)))
        CFI (cfiCond58) V0 load(1, XDATA, add(CFA_XSP16, literal(-7)))
        CFI (cfiCond58) R7 load(1, XDATA, add(CFA_XSP16, literal(-6)))
        CFI (cfiCond58) ?RET_LOW load(1, XDATA, add(CFA_XSP16, literal(-5)))
        CFI (cfiCond58) ?RET_HIGH load(1, XDATA, add(CFA_XSP16, literal(-4)))
        CFI (cfiCond58) ?BRET_EXT load(1, XDATA, add(CFA_XSP16, literal(-3)))
        CFI (cfiCond58) DPL0 load(1, XDATA, add(CFA_XSP16, literal(-2)))
        CFI (cfiCond58) DPH0 load(1, XDATA, add(CFA_XSP16, literal(-1)))
        CFI (cfiCond58) CFA_SP SP+0
        CFI (cfiCond58) CFA_XSP16 add(XSP16, 9)
        CFI Block cfiPicker59 Using cfiCommon1
        CFI (cfiPicker59) NoFunction
        CFI (cfiPicker59) Picker
        MOV     R1,A
        CFI EndBlock cfiCond56
        CFI EndBlock cfiCond57
        CFI EndBlock cfiCond58
        CFI EndBlock cfiPicker59
        REQUIRE ??Subroutine13_0
        ; // Fall through to label ??Subroutine13_0

        RSEG BANKED_CODE:CODE:NOROOT(0)
??Subroutine13_0:
        CFI Block cfiCond60 Using cfiCommon0
        CFI NoFunction
        CFI Conditional ??CrossCallReturnLabel_23
        CFI DPL0 Frame(CFA_SP, 4)
        CFI DPH0 Frame(CFA_SP, 5)
        CFI CFA_SP SP+-5
        CFI Block cfiCond61 Using cfiCommon0
        CFI (cfiCond61) NoFunction
        CFI (cfiCond61) Conditional ??CrossCallReturnLabel_24
        CFI (cfiCond61) DPL0 Frame(CFA_SP, 4)
        CFI (cfiCond61) DPH0 Frame(CFA_SP, 5)
        CFI (cfiCond61) CFA_SP SP+-5
        CFI Block cfiCond62 Using cfiCommon0
        CFI (cfiCond62) NoFunction
        CFI (cfiCond62) Conditional ??CrossCallReturnLabel_25
        CFI (cfiCond62) DPL0 Frame(CFA_SP, 4)
        CFI (cfiCond62) DPH0 Frame(CFA_SP, 5)
        CFI (cfiCond62) CFA_SP SP+-5
        CFI Block cfiCond63 Using cfiCommon0
        CFI (cfiCond63) NoFunction
        CFI (cfiCond63) Conditional ??CrossCallReturnLabel_26
        CFI (cfiCond63) DPL0 Frame(CFA_SP, 4)
        CFI (cfiCond63) DPH0 Frame(CFA_SP, 5)
        CFI (cfiCond63) CFA_SP SP+-5
        CFI Block cfiCond64 Using cfiCommon0
        CFI (cfiCond64) NoFunction
        CFI (cfiCond64) Conditional ??CrossCallReturnLabel_27
        CFI (cfiCond64) DPL0 Frame(CFA_SP, 4)
        CFI (cfiCond64) DPH0 Frame(CFA_SP, 5)
        CFI (cfiCond64) CFA_SP SP+-5
        CFI Block cfiCond65 Using cfiCommon0
        CFI (cfiCond65) NoFunction
        CFI (cfiCond65) Conditional ??CrossCallReturnLabel_28
        CFI (cfiCond65) DPL0 Frame(CFA_SP, 4)
        CFI (cfiCond65) DPH0 Frame(CFA_SP, 5)
        CFI (cfiCond65) CFA_SP SP+-5
        CFI Block cfiCond66 Using cfiCommon0
        CFI (cfiCond66) NoFunction
        CFI (cfiCond66) Conditional ??CrossCallReturnLabel_29
        CFI (cfiCond66) DPL0 Frame(CFA_SP, 4)
        CFI (cfiCond66) DPH0 Frame(CFA_SP, 5)
        CFI (cfiCond66) CFA_SP SP+-5
        CFI Block cfiCond67 Using cfiCommon0
        CFI (cfiCond67) NoFunction
        CFI (cfiCond67) Conditional ??CrossCallReturnLabel_30
        CFI (cfiCond67) DPL0 Frame(CFA_SP, 4)
        CFI (cfiCond67) DPH0 Frame(CFA_SP, 5)
        CFI (cfiCond67) CFA_SP SP+-5
        CFI Block cfiCond68 Using cfiCommon0
        CFI (cfiCond68) NoFunction
        CFI (cfiCond68) Conditional ??CrossCallReturnLabel_31
        CFI (cfiCond68) DPL0 Frame(CFA_SP, 4)
        CFI (cfiCond68) DPH0 Frame(CFA_SP, 5)
        CFI (cfiCond68) CFA_SP SP+-5
        CFI Block cfiCond69 Using cfiCommon0
        CFI (cfiCond69) NoFunction
        CFI (cfiCond69) Conditional ??CrossCallReturnLabel_32
        CFI (cfiCond69) DPL0 Frame(CFA_SP, 4)
        CFI (cfiCond69) DPH0 Frame(CFA_SP, 5)
        CFI (cfiCond69) CFA_SP SP+-5
        CFI Block cfiCond70 Using cfiCommon0
        CFI (cfiCond70) NoFunction
        CFI (cfiCond70) Conditional ??CrossCallReturnLabel_33
        CFI (cfiCond70) DPL0 Frame(CFA_SP, 4)
        CFI (cfiCond70) DPH0 Frame(CFA_SP, 5)
        CFI (cfiCond70) CFA_SP SP+-5
        CFI Block cfiCond71 Using cfiCommon0
        CFI (cfiCond71) NoFunction
        CFI (cfiCond71) Conditional ??CrossCallReturnLabel_20
        CFI (cfiCond71) R6 load(1, XDATA, add(CFA_XSP16, literal(-9)))
        CFI (cfiCond71) VB load(1, XDATA, add(CFA_XSP16, literal(-8)))
        CFI (cfiCond71) V0 load(1, XDATA, add(CFA_XSP16, literal(-7)))
        CFI (cfiCond71) R7 load(1, XDATA, add(CFA_XSP16, literal(-6)))
        CFI (cfiCond71) ?RET_LOW load(1, XDATA, add(CFA_XSP16, literal(-5)))
        CFI (cfiCond71) ?RET_HIGH load(1, XDATA, add(CFA_XSP16, literal(-4)))
        CFI (cfiCond71) ?BRET_EXT load(1, XDATA, add(CFA_XSP16, literal(-3)))
        CFI (cfiCond71) DPL0 load(1, XDATA, add(CFA_XSP16, literal(-2)))
        CFI (cfiCond71) DPH0 load(1, XDATA, add(CFA_XSP16, literal(-1)))
        CFI (cfiCond71) CFA_SP SP+0
        CFI (cfiCond71) CFA_XSP16 add(XSP16, 9)
        CFI Block cfiCond72 Using cfiCommon0
        CFI (cfiCond72) NoFunction
        CFI (cfiCond72) Conditional ??CrossCallReturnLabel_21
        CFI (cfiCond72) R6 load(1, XDATA, add(CFA_XSP16, literal(-9)))
        CFI (cfiCond72) VB load(1, XDATA, add(CFA_XSP16, literal(-8)))
        CFI (cfiCond72) V0 load(1, XDATA, add(CFA_XSP16, literal(-7)))
        CFI (cfiCond72) R7 load(1, XDATA, add(CFA_XSP16, literal(-6)))
        CFI (cfiCond72) ?RET_LOW load(1, XDATA, add(CFA_XSP16, literal(-5)))
        CFI (cfiCond72) ?RET_HIGH load(1, XDATA, add(CFA_XSP16, literal(-4)))
        CFI (cfiCond72) ?BRET_EXT load(1, XDATA, add(CFA_XSP16, literal(-3)))
        CFI (cfiCond72) DPL0 load(1, XDATA, add(CFA_XSP16, literal(-2)))
        CFI (cfiCond72) DPH0 load(1, XDATA, add(CFA_XSP16, literal(-1)))
        CFI (cfiCond72) CFA_SP SP+0
        CFI (cfiCond72) CFA_XSP16 add(XSP16, 9)
        CFI Block cfiCond73 Using cfiCommon0
        CFI (cfiCond73) NoFunction
        CFI (cfiCond73) Conditional ??CrossCallReturnLabel_22
        CFI (cfiCond73) R6 load(1, XDATA, add(CFA_XSP16, literal(-9)))
        CFI (cfiCond73) VB load(1, XDATA, add(CFA_XSP16, literal(-8)))
        CFI (cfiCond73) V0 load(1, XDATA, add(CFA_XSP16, literal(-7)))
        CFI (cfiCond73) R7 load(1, XDATA, add(CFA_XSP16, literal(-6)))
        CFI (cfiCond73) ?RET_LOW load(1, XDATA, add(CFA_XSP16, literal(-5)))
        CFI (cfiCond73) ?RET_HIGH load(1, XDATA, add(CFA_XSP16, literal(-4)))
        CFI (cfiCond73) ?BRET_EXT load(1, XDATA, add(CFA_XSP16, literal(-3)))
        CFI (cfiCond73) DPL0 load(1, XDATA, add(CFA_XSP16, literal(-2)))
        CFI (cfiCond73) DPH0 load(1, XDATA, add(CFA_XSP16, literal(-1)))
        CFI (cfiCond73) CFA_SP SP+0
        CFI (cfiCond73) CFA_XSP16 add(XSP16, 9)
        CFI Block cfiPicker74 Using cfiCommon1
        CFI (cfiPicker74) NoFunction
        CFI (cfiPicker74) Picker
        LCALL   ??HalLcd_HW_Control?relay
        ; Setup parameters for call to function HalLcd_HW_WaitUs
        ; Setup parameters for call to function HalLcd_HW_WaitUs
        ; Setup parameters for call to function HalLcd_HW_WaitUs
        ; Setup parameters for call to function HalLcd_HW_WaitUs
        ; Setup parameters for call to function HalLcd_HW_WaitUs
        ; Setup parameters for call to function HalLcd_HW_WaitUs
        ; Setup parameters for call to function HalLcd_HW_WaitUs
        ; Setup parameters for call to function HalLcd_HW_WaitUs
        ; Setup parameters for call to function HalLcd_HW_WaitUs
        ; Setup parameters for call to function HalLcd_HW_WaitUs
        ; Setup parameters for call to function HalLcd_HW_WaitUs
        ; Setup parameters for call to function HalLcd_HW_WaitUs
        ; Setup parameters for call to function HalLcd_HW_WaitUs
        ; Setup parameters for call to function HalLcd_HW_WaitUs
        MOV     R2,#0xf
        MOV     R3,#0x0
        LCALL   ??HalLcd_HW_WaitUs?relay
        RET
        CFI EndBlock cfiCond60
        CFI EndBlock cfiCond61
        CFI EndBlock cfiCond62
        CFI EndBlock cfiCond63
        CFI EndBlock cfiCond64
        CFI EndBlock cfiCond65
        CFI EndBlock cfiCond66
        CFI EndBlock cfiCond67
        CFI EndBlock cfiCond68
        CFI EndBlock cfiCond69
        CFI EndBlock cfiCond70
        CFI EndBlock cfiCond71
        CFI EndBlock cfiCond72
        CFI EndBlock cfiCond73
        CFI EndBlock cfiPicker74
//  802 
//  803 /*       这个函数是我加的
//  804 作用     显示一个字节的字符，该字符大小为宽5个点，高7个点
//  805 参数1    page,范围0~7,共8行
//  806 参数2    column,范围0~127
//  807 参数3    text,要显示的字符，该值为ascii码
//  808 */

        RSEG BANKED_CODE:CODE:NOROOT(0)
//  809 void DisplayByte_5x7(uint8 page,uint8 column,char text)
DisplayByte_5x7:
        CFI Block cfiBlock75 Using cfiCommon0
        CFI Function DisplayByte_5x7
        CODE
//  810 {
        FUNCALL DisplayByte_5x7, set_ddram_line_col
        LOCFRAME ISTACK, 0, STACK
        LOCFRAME PSTACK, 0, STACK
        LOCFRAME XSTACK, 13, STACK
        LOCFRAME IOVERLAY, 0, STATIC
        LOCFRAME DOVERLAY, 0, STATIC
        ARGFRAME ISTACK, 0, STACK
        ARGFRAME PSTACK, 0, STACK
        ARGFRAME XSTACK, 13, STACK
        ARGFRAME IOVERLAY, 0, STATIC
        ARGFRAME DOVERLAY, 0, STATIC
        FUNCALL DisplayByte_5x7, HalLcd_HW_Write
        LOCFRAME ISTACK, 0, STACK
        LOCFRAME PSTACK, 0, STACK
        LOCFRAME XSTACK, 13, STACK
        LOCFRAME IOVERLAY, 0, STATIC
        LOCFRAME DOVERLAY, 0, STATIC
        ARGFRAME ISTACK, 0, STACK
        ARGFRAME PSTACK, 0, STACK
        ARGFRAME XSTACK, 13, STACK
        ARGFRAME IOVERLAY, 0, STATIC
        ARGFRAME DOVERLAY, 0, STATIC
        FUNCALL DisplayByte_5x7, HalLcd_HW_Write
        LOCFRAME ISTACK, 0, STACK
        LOCFRAME PSTACK, 0, STACK
        LOCFRAME XSTACK, 13, STACK
        LOCFRAME IOVERLAY, 0, STATIC
        LOCFRAME DOVERLAY, 0, STATIC
        ARGFRAME ISTACK, 0, STACK
        ARGFRAME PSTACK, 0, STACK
        ARGFRAME XSTACK, 13, STACK
        ARGFRAME IOVERLAY, 0, STATIC
        ARGFRAME DOVERLAY, 0, STATIC
        FUNCALL DisplayByte_5x7, set_ddram_line_col
        LOCFRAME ISTACK, 0, STACK
        LOCFRAME PSTACK, 0, STACK
        LOCFRAME XSTACK, 13, STACK
        LOCFRAME IOVERLAY, 0, STATIC
        LOCFRAME DOVERLAY, 0, STATIC
        ARGFRAME ISTACK, 0, STACK
        ARGFRAME PSTACK, 0, STACK
        ARGFRAME XSTACK, 13, STACK
        ARGFRAME IOVERLAY, 0, STATIC
        ARGFRAME DOVERLAY, 0, STATIC
        FUNCALL DisplayByte_5x7, HalLcd_HW_Write
        LOCFRAME ISTACK, 0, STACK
        LOCFRAME PSTACK, 0, STACK
        LOCFRAME XSTACK, 13, STACK
        LOCFRAME IOVERLAY, 0, STATIC
        LOCFRAME DOVERLAY, 0, STATIC
        ARGFRAME ISTACK, 0, STACK
        ARGFRAME PSTACK, 0, STACK
        ARGFRAME XSTACK, 13, STACK
        ARGFRAME IOVERLAY, 0, STATIC
        ARGFRAME DOVERLAY, 0, STATIC
        MOV     A,#-0xd
        LCALL   ?BANKED_ENTER_XDATA
        CFI DPH0 load(1, XDATA, add(CFA_XSP16, literal(-1)))
        CFI DPL0 load(1, XDATA, add(CFA_XSP16, literal(-2)))
        CFI ?BRET_EXT load(1, XDATA, add(CFA_XSP16, literal(-3)))
        CFI ?RET_HIGH load(1, XDATA, add(CFA_XSP16, literal(-4)))
        CFI ?RET_LOW load(1, XDATA, add(CFA_XSP16, literal(-5)))
        CFI R7 load(1, XDATA, add(CFA_XSP16, literal(-6)))
        CFI V4 load(1, XDATA, add(CFA_XSP16, literal(-7)))
        CFI V3 load(1, XDATA, add(CFA_XSP16, literal(-8)))
        CFI V2 load(1, XDATA, add(CFA_XSP16, literal(-9)))
        CFI V1 load(1, XDATA, add(CFA_XSP16, literal(-10)))
        CFI V0 load(1, XDATA, add(CFA_XSP16, literal(-11)))
        CFI VB load(1, XDATA, add(CFA_XSP16, literal(-12)))
        CFI R6 load(1, XDATA, add(CFA_XSP16, literal(-13)))
        CFI CFA_SP SP+0
        CFI CFA_XSP16 add(XSP16, 13)
        ; Saved register size: 13
        ; Auto size: 0
        MOV     ?V0 + 4,R3
//  811 	int j,k;
//  812 
//  813 	if((text>=0x20)&&(text<0x7e)){/*需要显示的文字*/
        MOV     A,#-0x20
        ADD     A,?V0 + 4
        CLR     C
        SUBB    A,#0x5e
        MOV     A,R3
        JNC     ??DisplayByte_5x7_0
//  814 		j=text-0x20;/*寻址，通过字符的ascii码找到点阵库中的改字符的位置*/
        ADD     A,#-0x20
        MOV     ?V0 + 0,A
        CLR     A
        ADDC    A,#-0x1
        MOV     ?V0 + 1,A
//  815 		set_ddram_line_col(page,column);
        ; Setup parameters for call to function set_ddram_line_col
        LCALL   ??set_ddram_line_col?relay
//  816 		for(k=0;k<5;k++)
        MOV     R6,#0x0
        MOV     R7,#0x0
//  817 		{
//  818 			HalLcd_HW_Write(ascii_table_5x7[j][k]);/*显示5x7的ASCII字到LCD上，y为页地址，x为列地址，最后为数据*/
??DisplayByte_5x7_1:
        ; Setup parameters for call to function HalLcd_HW_Write
        MOV     A,?V0 + 0
        MOV     B,#0x5
        MUL     AB
        MOV     R0,A
        MOV     R2,B
        MOV     B,#0x5
        MOV     A,?V0 + 1
        MUL     AB
        ADD     A,R2
        MOV     R1,A
        MOV     A,#ascii_table_5x7 & 0xff
        ADD     A,R0
        MOV     R0,A
        MOV     A,#(ascii_table_5x7 >> 8) & 0xff
        ADDC    A,R1
        MOV     R1,A
        MOV     A,R0
        ADD     A,R6
        MOV     DPL,A
        MOV     A,R1
        ADDC    A,R7
        MOV     DPH,A
        CLR     A
        MOVC    A,@A+DPTR
        MOV     R1,A
        LCALL   ??HalLcd_HW_Write?relay
//  819 		}
        LCALL   ?Subroutine7 & 0xFFFF
??CrossCallReturnLabel_4:
        SUBB    A,#0x5
        MOV     A,R7
        SUBB    A,#0x0
        MOV     C,0xD0 /* PSW */.2
        XRL     A,PSW
        RLC     A
        JC      ??DisplayByte_5x7_1
//  820 		//第六列写入0，即清除上一次留下来的数据
//  821 		HalLcd_HW_Write(0x00);
        ; Setup parameters for call to function HalLcd_HW_Write
        MOV     R1,#0x0
        LCALL   ??HalLcd_HW_Write?relay
//  822 		column+=6;
        SJMP    ??DisplayByte_5x7_2
//  823 	}else if(text==0x00){/*不需要显示，清空指定位置*/
??DisplayByte_5x7_0:
        JNZ     ??DisplayByte_5x7_2
//  824 		set_ddram_line_col(page,column);
        ; Setup parameters for call to function set_ddram_line_col
        LCALL   ??set_ddram_line_col?relay
//  825 		for(k=0;k<5;k++){
        MOV     R6,#0x5
//  826 			HalLcd_HW_Write(0x00); //清空指定的字符位置
??DisplayByte_5x7_3:
        ; Setup parameters for call to function HalLcd_HW_Write
        MOV     R1,#0x0
        LCALL   ??HalLcd_HW_Write?relay
//  827 		}
        DEC     R6
        MOV     A,R6
        JNZ     ??DisplayByte_5x7_3
//  828 	}
//  829 
//  830 }
??DisplayByte_5x7_2:
        MOV     R7,#0x5
        LJMP    ?BANKED_LEAVE_XDATA
        CFI EndBlock cfiBlock75

        RSEG BANKED_CODE:CODE:NOROOT(0)
?Subroutine7:
        CFI Block cfiCond76 Using cfiCommon0
        CFI NoFunction
        CFI Conditional ??CrossCallReturnLabel_3
        CFI R6 load(1, XDATA, add(CFA_XSP16, literal(-9)))
        CFI VB load(1, XDATA, add(CFA_XSP16, literal(-8)))
        CFI V0 load(1, XDATA, add(CFA_XSP16, literal(-7)))
        CFI R7 load(1, XDATA, add(CFA_XSP16, literal(-6)))
        CFI ?RET_LOW load(1, XDATA, add(CFA_XSP16, literal(-5)))
        CFI ?RET_HIGH load(1, XDATA, add(CFA_XSP16, literal(-4)))
        CFI ?BRET_EXT load(1, XDATA, add(CFA_XSP16, literal(-3)))
        CFI DPL0 load(1, XDATA, add(CFA_XSP16, literal(-2)))
        CFI DPH0 load(1, XDATA, add(CFA_XSP16, literal(-1)))
        CFI CFA_SP SP+0
        CFI CFA_XSP16 add(XSP16, 9)
        CFI Block cfiCond77 Using cfiCommon0
        CFI (cfiCond77) NoFunction
        CFI (cfiCond77) Conditional ??CrossCallReturnLabel_4
        CFI (cfiCond77) R6 load(1, XDATA, add(CFA_XSP16, literal(-13)))
        CFI (cfiCond77) VB load(1, XDATA, add(CFA_XSP16, literal(-12)))
        CFI (cfiCond77) V0 load(1, XDATA, add(CFA_XSP16, literal(-11)))
        CFI (cfiCond77) V1 load(1, XDATA, add(CFA_XSP16, literal(-10)))
        CFI (cfiCond77) V2 load(1, XDATA, add(CFA_XSP16, literal(-9)))
        CFI (cfiCond77) V3 load(1, XDATA, add(CFA_XSP16, literal(-8)))
        CFI (cfiCond77) V4 load(1, XDATA, add(CFA_XSP16, literal(-7)))
        CFI (cfiCond77) R7 load(1, XDATA, add(CFA_XSP16, literal(-6)))
        CFI (cfiCond77) ?RET_LOW load(1, XDATA, add(CFA_XSP16, literal(-5)))
        CFI (cfiCond77) ?RET_HIGH load(1, XDATA, add(CFA_XSP16, literal(-4)))
        CFI (cfiCond77) ?BRET_EXT load(1, XDATA, add(CFA_XSP16, literal(-3)))
        CFI (cfiCond77) DPL0 load(1, XDATA, add(CFA_XSP16, literal(-2)))
        CFI (cfiCond77) DPH0 load(1, XDATA, add(CFA_XSP16, literal(-1)))
        CFI (cfiCond77) CFA_SP SP+0
        CFI (cfiCond77) CFA_XSP16 add(XSP16, 13)
        CFI Block cfiPicker78 Using cfiCommon1
        CFI (cfiPicker78) NoFunction
        CFI (cfiPicker78) Picker
        MOV     A,R6
        ADD     A,#0x1
        INC     R6
        MOV     A,R7
        ADDC    A,#0x0
        MOV     R7,A
        CLR     C
        MOV     A,R6
        RET
        CFI EndBlock cfiCond76
        CFI EndBlock cfiCond77
        CFI EndBlock cfiPicker78
//  831 
//  832 /**************************************************************************************************
//  833  * @fn      HalLcd_HW_WriteChar
//  834  *
//  835  * @brief   Write one char to the display
//  836  *
//  837  * @param   uint8 line - line number that the char will be displayed
//  838  *          uint8 col - colum where the char will be displayed
//  839  *
//  840  * @return  None
//  841  **************************************************************************************************/

        RSEG BANKED_CODE:CODE:NOROOT(0)
//  842 void HalLcd_HW_WriteChar(uint8 line, uint8 col, char text)
HalLcd_HW_WriteChar:
        CFI Block cfiBlock79 Using cfiCommon0
        CFI Function HalLcd_HW_WriteChar
        CODE
//  843 {
        FUNCALL HalLcd_HW_WriteChar, DisplayByte_5x7
        LOCFRAME ISTACK, 0, STACK
        LOCFRAME PSTACK, 0, STACK
        LOCFRAME XSTACK, 9, STACK
        LOCFRAME IOVERLAY, 0, STATIC
        LOCFRAME DOVERLAY, 0, STATIC
        ARGFRAME ISTACK, 0, STACK
        ARGFRAME PSTACK, 0, STACK
        ARGFRAME XSTACK, 9, STACK
        ARGFRAME IOVERLAY, 0, STATIC
        ARGFRAME DOVERLAY, 0, STATIC
        MOV     A,#-0x9
        LCALL   ?BANKED_ENTER_XDATA
        CFI DPH0 load(1, XDATA, add(CFA_XSP16, literal(-1)))
        CFI DPL0 load(1, XDATA, add(CFA_XSP16, literal(-2)))
        CFI ?BRET_EXT load(1, XDATA, add(CFA_XSP16, literal(-3)))
        CFI ?RET_HIGH load(1, XDATA, add(CFA_XSP16, literal(-4)))
        CFI ?RET_LOW load(1, XDATA, add(CFA_XSP16, literal(-5)))
        CFI R7 load(1, XDATA, add(CFA_XSP16, literal(-6)))
        CFI V0 load(1, XDATA, add(CFA_XSP16, literal(-7)))
        CFI VB load(1, XDATA, add(CFA_XSP16, literal(-8)))
        CFI R6 load(1, XDATA, add(CFA_XSP16, literal(-9)))
        CFI CFA_SP SP+0
        CFI CFA_XSP16 add(XSP16, 9)
        ; Saved register size: 9
        ; Auto size: 0
//  844   //吧这个函数内容屏蔽掉，添加自己的
//  845   /*if (col < HAL_LCD_MAX_CHARS)
//  846   {
//  847     SET_DDRAM_ADDR((line - 1) * HAL_LCD_MAX_CHARS + col);
//  848     HalLcd_HW_Write(text);
//  849   }
//  850   else
//  851   {
//  852     return;
//  853   }*/
//  854   
//  855   //以下是我加的
//  856   	uint8 column = 1+col*6;
//  857 	uint8 page = line-1;
//  858 	if(col > 21)/*超出部分不显示*/
        MOV     A,R2
        CLR     C
        SUBB    A,#0x16
        JNC     ??HalLcd_HW_WriteChar_0
//  859 		return;
//  860 	DisplayByte_5x7(page,column,text);
        ; Setup parameters for call to function DisplayByte_5x7
        MOV     B,#0x6
        MOV     A,R2
        MUL     AB
        INC     A
        MOV     R2,A
        DEC     R1
        LCALL   ??DisplayByte_5x7?relay
//  861 }
??HalLcd_HW_WriteChar_0:
        LJMP    ?Subroutine1 & 0xFFFF
        CFI EndBlock cfiBlock79
//  862 
//  863 /**************************************************************************************************
//  864  * @fn          halLcdWriteLine
//  865  *
//  866  * @brief       Write one line on display
//  867  *
//  868  * @param       uint8 line - display line
//  869  *              char *pText - text buffer to write
//  870  *
//  871  * @return      none
//  872  **************************************************************************************************/

        RSEG BANKED_CODE:CODE:NOROOT(0)
//  873 void HalLcd_HW_WriteLine(uint8 line, const char *pText)
HalLcd_HW_WriteLine:
        CFI Block cfiBlock80 Using cfiCommon0
        CFI Function HalLcd_HW_WriteLine
        CODE
//  874 {
        FUNCALL HalLcd_HW_WriteLine, osal_strlen
        LOCFRAME ISTACK, 0, STACK
        LOCFRAME PSTACK, 0, STACK
        LOCFRAME XSTACK, 11, STACK
        LOCFRAME IOVERLAY, 0, STATIC
        LOCFRAME DOVERLAY, 0, STATIC
        ARGFRAME ISTACK, 0, STACK
        ARGFRAME PSTACK, 0, STACK
        ARGFRAME XSTACK, 11, STACK
        ARGFRAME IOVERLAY, 0, STATIC
        ARGFRAME DOVERLAY, 0, STATIC
        FUNCALL HalLcd_HW_WriteLine, HalLcd_HW_WriteChar
        LOCFRAME ISTACK, 0, STACK
        LOCFRAME PSTACK, 0, STACK
        LOCFRAME XSTACK, 11, STACK
        LOCFRAME IOVERLAY, 0, STATIC
        LOCFRAME DOVERLAY, 0, STATIC
        ARGFRAME ISTACK, 0, STACK
        ARGFRAME PSTACK, 0, STACK
        ARGFRAME XSTACK, 11, STACK
        ARGFRAME IOVERLAY, 0, STATIC
        ARGFRAME DOVERLAY, 0, STATIC
        FUNCALL HalLcd_HW_WriteLine, HalLcd_HW_WriteChar
        LOCFRAME ISTACK, 0, STACK
        LOCFRAME PSTACK, 0, STACK
        LOCFRAME XSTACK, 11, STACK
        LOCFRAME IOVERLAY, 0, STATIC
        LOCFRAME DOVERLAY, 0, STATIC
        ARGFRAME ISTACK, 0, STACK
        ARGFRAME PSTACK, 0, STACK
        ARGFRAME XSTACK, 11, STACK
        ARGFRAME IOVERLAY, 0, STATIC
        ARGFRAME DOVERLAY, 0, STATIC
        MOV     A,#-0xb
        LCALL   ?BANKED_ENTER_XDATA
        CFI DPH0 load(1, XDATA, add(CFA_XSP16, literal(-1)))
        CFI DPL0 load(1, XDATA, add(CFA_XSP16, literal(-2)))
        CFI ?BRET_EXT load(1, XDATA, add(CFA_XSP16, literal(-3)))
        CFI ?RET_HIGH load(1, XDATA, add(CFA_XSP16, literal(-4)))
        CFI ?RET_LOW load(1, XDATA, add(CFA_XSP16, literal(-5)))
        CFI R7 load(1, XDATA, add(CFA_XSP16, literal(-6)))
        CFI V2 load(1, XDATA, add(CFA_XSP16, literal(-7)))
        CFI V1 load(1, XDATA, add(CFA_XSP16, literal(-8)))
        CFI V0 load(1, XDATA, add(CFA_XSP16, literal(-9)))
        CFI VB load(1, XDATA, add(CFA_XSP16, literal(-10)))
        CFI R6 load(1, XDATA, add(CFA_XSP16, literal(-11)))
        CFI CFA_SP SP+0
        CFI CFA_XSP16 add(XSP16, 11)
        ; Saved register size: 11
        ; Auto size: 0
        MOV     ?V0 + 1,R1
        MOV     A,R2
        MOV     R6,A
        MOV     A,R3
        MOV     R7,A
//  875   //吧这个函数内容屏蔽掉
//  876   //我屏蔽的uint8 count;
//  877   //我屏蔽的uint8 totalLength = (uint8)osal_strlen( (char *)pText );
//  878 
//  879   /* Write the content first */
//  880   //我屏蔽的for (count=0; count<totalLength; count++)
//  881   //我屏蔽的{
//  882     //我屏蔽的HalLcd_HW_WriteChar(line, count, (*(pText++)));
//  883   //我屏蔽的}
//  884 
//  885   /* Write blank spaces to rest of the line */
//  886   //我屏蔽的for(count=totalLength; count<HAL_LCD_MAX_CHARS;count++)
//  887   //我屏蔽的{
//  888   //我屏蔽的  HalLcd_HW_WriteChar(line, count, ' ');
//  889   //我屏蔽的}
//  890   
//  891   //以下是我加的
//  892      uint8 count; 
//  893      uint8 totalLength = (uint8)osal_strlen( (char *)pText );
        ; Setup parameters for call to function osal_strlen
        LCALL   ?Subroutine5 & 0xFFFF
//  894      for (count=0; count<totalLength; count++)
??CrossCallReturnLabel_2:
        MOV     ?V0 + 0,#0x0
        SJMP    ??HalLcd_HW_WriteLine_0
//  895      {
//  896         HalLcd_HW_WriteChar(line,count,*pText);
??HalLcd_HW_WriteLine_1:
        ; Setup parameters for call to function HalLcd_HW_WriteChar
        MOV     DPL,R6
        MOV     DPH,R7
        MOVX    A,@DPTR
        MOV     R3,A
        MOV     R2,?V0 + 0
        MOV     R1,?V0 + 1
        LCALL   ??HalLcd_HW_WriteChar?relay
//  897         pText++;
        MOV     DPL,R6
        MOV     DPH,R7
        INC     DPTR
        MOV     R6,DPL
        MOV     R7,DPH
//  898      }  
        INC     ?V0 + 0
??HalLcd_HW_WriteLine_0:
        MOV     A,?V0 + 0
        CLR     C
        SUBB    A,?V0 + 2
        JC      ??HalLcd_HW_WriteLine_1
//  899      /* Write blank spaces to rest of the line 这行中超出字符串范围的区域清屏
//  900      以免上次这行中超出这次字符长度的字符还存在*/  
//  901      for(count=totalLength; count<26;count++)
        MOV     ?V0 + 0,?V0 + 2
        SJMP    ??HalLcd_HW_WriteLine_2
//  902   {
//  903     HalLcd_HW_WriteChar(line, count, 0x00);
??HalLcd_HW_WriteLine_3:
        ; Setup parameters for call to function HalLcd_HW_WriteChar
        MOV     R3,#0x0
        MOV     R2,?V0 + 0
        MOV     R1,?V0 + 1
        LCALL   ??HalLcd_HW_WriteChar?relay
//  904   }
        INC     ?V0 + 0
??HalLcd_HW_WriteLine_2:
        MOV     A,?V0 + 0
        CLR     C
        SUBB    A,#0x1a
        JC      ??HalLcd_HW_WriteLine_3
//  905 }
        MOV     R7,#0x3
        LJMP    ?BANKED_LEAVE_XDATA
        CFI EndBlock cfiBlock80
//  906 
//  907 /**************************************************************************************************
//  908  * @fn      HalLcd_HW_WaitUs
//  909  *
//  910  * @brief   wait for x us. @ 32MHz MCU clock it takes 32 "nop"s for 1 us delay.
//  911  *
//  912  * @param   x us. range[0-65536]
//  913  *
//  914  * @return  None
//  915  **************************************************************************************************/

        RSEG BANKED_CODE:CODE:NOROOT(0)
//  916 void HalLcd_HW_WaitUs(uint16 microSecs)
HalLcd_HW_WaitUs:
        CFI Block cfiBlock81 Using cfiCommon0
        CFI Function HalLcd_HW_WaitUs
        CODE
//  917 {
        ; Saved register size: 0
        ; Auto size: 0
        SJMP    ??HalLcd_HW_WaitUs_0
//  918   while(microSecs--)
//  919   {
//  920     /* 32 NOPs == 1 usecs */
//  921     asm("nop"); asm("nop"); asm("nop"); asm("nop"); asm("nop");
??HalLcd_HW_WaitUs_1:
        nop
        nop
        nop
        nop
        nop
//  922     asm("nop"); asm("nop"); asm("nop"); asm("nop"); asm("nop");
        nop
        nop
        nop
        nop
        nop
//  923     asm("nop"); asm("nop"); asm("nop"); asm("nop"); asm("nop");
        nop
        nop
        nop
        nop
        nop
//  924     asm("nop"); asm("nop"); asm("nop"); asm("nop"); asm("nop");
        nop
        nop
        nop
        nop
        nop
//  925     asm("nop"); asm("nop"); asm("nop"); asm("nop"); asm("nop");
        nop
        nop
        nop
        nop
        nop
//  926     asm("nop"); asm("nop"); asm("nop"); asm("nop"); asm("nop");
        nop
        nop
        nop
        nop
        nop
//  927     asm("nop"); asm("nop");
        nop
        nop
//  928   }
??HalLcd_HW_WaitUs_0:
        MOV     A,R2
        MOV     R0,A
        MOV     A,R3
        MOV     R1,A
        MOV     A,R0
        ADD     A,#-0x1
        DEC     R2
        MOV     A,R1
        ADDC    A,#-0x1
        MOV     R3,A
        MOV     A,R0
        ORL     A,R1
        JNZ     ??HalLcd_HW_WaitUs_1
//  929 }
        LJMP    ?BRET
        CFI EndBlock cfiBlock81
//  930 

        RSEG CODE_C:CODE:REORDER:NOROOT(0)
        DATA8
//  931 __code const uint8 ascii_table_5x7[][5] = {
ascii_table_5x7:
        DB 0
        DB 0
        DB 0
        DB 0
        DB 0
        DB 0
        DB 0
        DB 79
        DB 0
        DB 0
        DB 0
        DB 7
        DB 0
        DB 7
        DB 0
        DB 20
        DB 127
        DB 20
        DB 127
        DB 20
        DB 36
        DB 42
        DB 127
        DB 42
        DB 18
        DB 35
        DB 19
        DB 8
        DB 100
        DB 98
        DB 54
        DB 73
        DB 85
        DB 34
        DB 80
        DB 0
        DB 5
        DB 7
        DB 0
        DB 0
        DB 0
        DB 28
        DB 34
        DB 65
        DB 0
        DB 0
        DB 65
        DB 34
        DB 28
        DB 0
        DB 20
        DB 8
        DB 62
        DB 8
        DB 20
        DB 8
        DB 8
        DB 62
        DB 8
        DB 8
        DB 0
        DB 80
        DB 48
        DB 0
        DB 0
        DB 8
        DB 8
        DB 8
        DB 8
        DB 8
        DB 0
        DB 96
        DB 96
        DB 0
        DB 0
        DB 32
        DB 16
        DB 8
        DB 4
        DB 2
        DB 62
        DB 81
        DB 73
        DB 69
        DB 62
        DB 0
        DB 66
        DB 127
        DB 64
        DB 0
        DB 66
        DB 97
        DB 81
        DB 73
        DB 70
        DB 33
        DB 65
        DB 69
        DB 75
        DB 49
        DB 24
        DB 20
        DB 18
        DB 127
        DB 16
        DB 39
        DB 69
        DB 69
        DB 69
        DB 57
        DB 60
        DB 74
        DB 73
        DB 73
        DB 48
        DB 1
        DB 113
        DB 9
        DB 5
        DB 3
        DB 54
        DB 73
        DB 73
        DB 73
        DB 54
        DB 6
        DB 73
        DB 73
        DB 41
        DB 30
        DB 0
        DB 54
        DB 54
        DB 0
        DB 0
        DB 0
        DB 86
        DB 54
        DB 0
        DB 0
        DB 8
        DB 20
        DB 34
        DB 65
        DB 0
        DB 20
        DB 20
        DB 20
        DB 20
        DB 20
        DB 0
        DB 65
        DB 34
        DB 20
        DB 8
        DB 2
        DB 1
        DB 81
        DB 9
        DB 6
        DB 50
        DB 73
        DB 121
        DB 65
        DB 62
        DB 126
        DB 17
        DB 17
        DB 17
        DB 126
        DB 127
        DB 73
        DB 73
        DB 73
        DB 54
        DB 62
        DB 65
        DB 65
        DB 65
        DB 34
        DB 127
        DB 65
        DB 65
        DB 34
        DB 28
        DB 127
        DB 73
        DB 73
        DB 73
        DB 65
        DB 127
        DB 9
        DB 9
        DB 9
        DB 1
        DB 62
        DB 65
        DB 73
        DB 73
        DB 122
        DB 127
        DB 8
        DB 8
        DB 8
        DB 127
        DB 0
        DB 65
        DB 127
        DB 65
        DB 0
        DB 32
        DB 64
        DB 65
        DB 63
        DB 1
        DB 127
        DB 8
        DB 20
        DB 34
        DB 65
        DB 127
        DB 64
        DB 64
        DB 64
        DB 64
        DB 127
        DB 2
        DB 12
        DB 2
        DB 127
        DB 127
        DB 4
        DB 8
        DB 16
        DB 127
        DB 62
        DB 65
        DB 65
        DB 65
        DB 62
        DB 127
        DB 9
        DB 9
        DB 9
        DB 6
        DB 62
        DB 65
        DB 81
        DB 33
        DB 94
        DB 127
        DB 9
        DB 25
        DB 41
        DB 70
        DB 70
        DB 73
        DB 73
        DB 73
        DB 49
        DB 1
        DB 1
        DB 127
        DB 1
        DB 1
        DB 63
        DB 64
        DB 64
        DB 64
        DB 63
        DB 31
        DB 32
        DB 64
        DB 32
        DB 31
        DB 63
        DB 64
        DB 56
        DB 64
        DB 63
        DB 99
        DB 20
        DB 8
        DB 20
        DB 99
        DB 7
        DB 8
        DB 112
        DB 8
        DB 7
        DB 97
        DB 81
        DB 73
        DB 69
        DB 67
        DB 0
        DB 127
        DB 65
        DB 65
        DB 0
        DB 2
        DB 4
        DB 8
        DB 16
        DB 32
        DB 0
        DB 65
        DB 65
        DB 127
        DB 0
        DB 4
        DB 2
        DB 1
        DB 2
        DB 4
        DB 64
        DB 64
        DB 64
        DB 64
        DB 64
        DB 1
        DB 2
        DB 4
        DB 0
        DB 0
        DB 32
        DB 84
        DB 84
        DB 84
        DB 120
        DB 127
        DB 72
        DB 72
        DB 72
        DB 48
        DB 56
        DB 68
        DB 68
        DB 68
        DB 68
        DB 48
        DB 72
        DB 72
        DB 72
        DB 127
        DB 56
        DB 84
        DB 84
        DB 84
        DB 88
        DB 0
        DB 8
        DB 126
        DB 9
        DB 2
        DB 72
        DB 84
        DB 84
        DB 84
        DB 60
        DB 127
        DB 8
        DB 8
        DB 8
        DB 112
        DB 0
        DB 0
        DB 122
        DB 0
        DB 0
        DB 32
        DB 64
        DB 64
        DB 61
        DB 0
        DB 127
        DB 32
        DB 40
        DB 68
        DB 0
        DB 0
        DB 65
        DB 127
        DB 64
        DB 0
        DB 124
        DB 4
        DB 56
        DB 4
        DB 124
        DB 124
        DB 8
        DB 4
        DB 4
        DB 120
        DB 56
        DB 68
        DB 68
        DB 68
        DB 56
        DB 124
        DB 20
        DB 20
        DB 20
        DB 8
        DB 8
        DB 20
        DB 20
        DB 20
        DB 124
        DB 124
        DB 8
        DB 4
        DB 4
        DB 8
        DB 72
        DB 84
        DB 84
        DB 84
        DB 36
        DB 4
        DB 4
        DB 63
        DB 68
        DB 36
        DB 60
        DB 64
        DB 64
        DB 64
        DB 60
        DB 28
        DB 32
        DB 64
        DB 32
        DB 28
        DB 60
        DB 64
        DB 48
        DB 64
        DB 60
        DB 68
        DB 40
        DB 16
        DB 40
        DB 68
        DB 4
        DB 72
        DB 48
        DB 8
        DB 4
        DB 68
        DB 100
        DB 84
        DB 76
        DB 68
        DB 8
        DB 54
        DB 65
        DB 65
        DB 0
        DB 0
        DB 0
        DB 119
        DB 0
        DB 0
        DB 0
        DB 65
        DB 65
        DB 54
        DB 8
        DB 4
        DB 2
        DB 2
        DB 2
        DB 1

        RSEG BANK_RELAYS:CODE:REORDER:NOROOT(0)
??HalLcdInit?relay:
        LCALL   ?BDISPATCH
        DATA
        DC24    HalLcdInit

        RSEG BANK_RELAYS:CODE:REORDER:NOROOT(0)
??HalLcdWriteString?relay:
        LCALL   ?BDISPATCH
        DATA
        DC24    HalLcdWriteString

        RSEG BANK_RELAYS:CODE:REORDER:NOROOT(0)
??HalLcdWriteValue?relay:
        LCALL   ?BDISPATCH
        DATA
        DC24    HalLcdWriteValue

        RSEG BANK_RELAYS:CODE:REORDER:NOROOT(0)
??HalLcdWriteScreen?relay:
        LCALL   ?BDISPATCH
        DATA
        DC24    HalLcdWriteScreen

        RSEG BANK_RELAYS:CODE:REORDER:NOROOT(0)
??HalLcdWriteStringValue?relay:
        LCALL   ?BDISPATCH
        DATA
        DC24    HalLcdWriteStringValue

        RSEG BANK_RELAYS:CODE:REORDER:NOROOT(0)
??HalLcdWriteStringValueValue?relay:
        LCALL   ?BDISPATCH
        DATA
        DC24    HalLcdWriteStringValueValue

        RSEG BANK_RELAYS:CODE:REORDER:NOROOT(0)
??HalLcdDisplayPercentBar?relay:
        LCALL   ?BDISPATCH
        DATA
        DC24    HalLcdDisplayPercentBar

        RSEG BANK_RELAYS:CODE:REORDER:NOROOT(0)
??HalLcd_HW_Control?relay:
        LCALL   ?BDISPATCH
        DATA
        DC24    HalLcd_HW_Control

        RSEG BANK_RELAYS:CODE:REORDER:NOROOT(0)
??HalLcd_HW_Write?relay:
        LCALL   ?BDISPATCH
        DATA
        DC24    HalLcd_HW_Write

        RSEG BANK_RELAYS:CODE:REORDER:NOROOT(0)
??HalLcd_HW_Clear?relay:
        LCALL   ?BDISPATCH
        DATA
        DC24    HalLcd_HW_Clear

        RSEG BANK_RELAYS:CODE:REORDER:NOROOT(0)
??HalLcd_HW_Init?relay:
        LCALL   ?BDISPATCH
        DATA
        DC24    HalLcd_HW_Init

        RSEG BANK_RELAYS:CODE:REORDER:NOROOT(0)
??set_ddram_line_col?relay:
        LCALL   ?BDISPATCH
        DATA
        DC24    set_ddram_line_col

        RSEG BANK_RELAYS:CODE:REORDER:NOROOT(0)
??DisplayByte_5x7?relay:
        LCALL   ?BDISPATCH
        DATA
        DC24    DisplayByte_5x7

        RSEG BANK_RELAYS:CODE:REORDER:NOROOT(0)
??HalLcd_HW_WriteChar?relay:
        LCALL   ?BDISPATCH
        DATA
        DC24    HalLcd_HW_WriteChar

        RSEG BANK_RELAYS:CODE:REORDER:NOROOT(0)
??HalLcd_HW_WriteLine?relay:
        LCALL   ?BDISPATCH
        DATA
        DC24    HalLcd_HW_WriteLine

        RSEG BANK_RELAYS:CODE:REORDER:NOROOT(0)
??HalLcd_HW_WaitUs?relay:
        LCALL   ?BDISPATCH
        DATA
        DC24    HalLcd_HW_WaitUs

        RSEG XDATA_ROM_C:CONST:REORDER:NOROOT(0)
        DATA8
`?<Constant "Texas Instruments">`:
        DB "Texas Instruments"

        RSEG XDATA_ROM_C:CONST:REORDER:NOROOT(0)
        DATA8
`?<Constant "[          ]  ">`:
        DB "[          ]  "

        END
//  932   {0x00,0x00,0x00,0x00,0x00},//space
//  933   {0x00,0x00,0x4f,0x00,0x00},//!
//  934   {0x00,0x07,0x00,0x07,0x00},//"
//  935   {0x14,0x7f,0x14,0x7f,0x14},//#
//  936   {0x24,0x2a,0x7f,0x2a,0x12},//$
//  937   {0x23,0x13,0x08,0x64,0x62},//%
//  938   {0x36,0x49,0x55,0x22,0x50},//&
//  939   {0x00,0x05,0x07,0x00,0x00},//]
//  940   {0x00,0x1c,0x22,0x41,0x00},//(
//  941   {0x00,0x41,0x22,0x1c,0x00},//)
//  942   {0x14,0x08,0x3e,0x08,0x14},//*
//  943   {0x08,0x08,0x3e,0x08,0x08},//+
//  944   {0x00,0x50,0x30,0x00,0x00},//,
//  945   {0x08,0x08,0x08,0x08,0x08},//-
//  946   {0x00,0x60,0x60,0x00,0x00},//.
//  947   {0x20,0x10,0x08,0x04,0x02},///
//  948   {0x3e,0x51,0x49,0x45,0x3e},//0
//  949   {0x00,0x42,0x7f,0x40,0x00},//1
//  950   {0x42,0x61,0x51,0x49,0x46},//2
//  951   {0x21,0x41,0x45,0x4b,0x31},//3
//  952   {0x18,0x14,0x12,0x7f,0x10},//4
//  953   {0x27,0x45,0x45,0x45,0x39},//5
//  954   {0x3c,0x4a,0x49,0x49,0x30},//6
//  955   {0x01,0x71,0x09,0x05,0x03},//7
//  956   {0x36,0x49,0x49,0x49,0x36},//8
//  957   {0x06,0x49,0x49,0x29,0x1e},//9
//  958   {0x00,0x36,0x36,0x00,0x00},//:
//  959   {0x00,0x56,0x36,0x00,0x00},//;
//  960   {0x08,0x14,0x22,0x41,0x00},//<
//  961   {0x14,0x14,0x14,0x14,0x14},//=
//  962   {0x00,0x41,0x22,0x14,0x08},//>
//  963   {0x02,0x01,0x51,0x09,0x06},//?
//  964   {0x32,0x49,0x79,0x41,0x3e},//@
//  965   {0x7e,0x11,0x11,0x11,0x7e},//A
//  966   {0x7f,0x49,0x49,0x49,0x36},//B
//  967   {0x3e,0x41,0x41,0x41,0x22},//C
//  968   {0x7f,0x41,0x41,0x22,0x1c},//D
//  969   {0x7f,0x49,0x49,0x49,0x41},//E
//  970   {0x7f,0x09,0x09,0x09,0x01},//F
//  971   {0x3e,0x41,0x49,0x49,0x7a},//G
//  972   {0x7f,0x08,0x08,0x08,0x7f},//H
//  973   {0x00,0x41,0x7f,0x41,0x00},//I
//  974   {0x20,0x40,0x41,0x3f,0x01},//J
//  975   {0x7f,0x08,0x14,0x22,0x41},//K
//  976   {0x7f,0x40,0x40,0x40,0x40},//L
//  977   {0x7f,0x02,0x0c,0x02,0x7f},//M
//  978   {0x7f,0x04,0x08,0x10,0x7f},//N
//  979   {0x3e,0x41,0x41,0x41,0x3e},//O
//  980   {0x7f,0x09,0x09,0x09,0x06},//P
//  981   {0x3e,0x41,0x51,0x21,0x5e},//Q
//  982   {0x7f,0x09,0x19,0x29,0x46},//R
//  983   {0x46,0x49,0x49,0x49,0x31},//S
//  984   {0x01,0x01,0x7f,0x01,0x01},//T
//  985   {0x3f,0x40,0x40,0x40,0x3f},//U
//  986   {0x1f,0x20,0x40,0x20,0x1f},//V
//  987   {0x3f,0x40,0x38,0x40,0x3f},//W
//  988   {0x63,0x14,0x08,0x14,0x63},//X
//  989   {0x07,0x08,0x70,0x08,0x07},//Y
//  990   {0x61,0x51,0x49,0x45,0x43},//Z
//  991   {0x00,0x7f,0x41,0x41,0x00},//[
//  992   {0x02,0x04,0x08,0x10,0x20},// 斜杠
//  993   {0x00,0x41,0x41,0x7f,0x00},//]
//  994   {0x04,0x02,0x01,0x02,0x04},//^
//  995   {0x40,0x40,0x40,0x40,0x40},//_
//  996   {0x01,0x02,0x04,0x00,0x00},//`
//  997   {0x20,0x54,0x54,0x54,0x78},//a
//  998   {0x7f,0x48,0x48,0x48,0x30},//b
//  999   {0x38,0x44,0x44,0x44,0x44},//c
// 1000   {0x30,0x48,0x48,0x48,0x7f},//d
// 1001   {0x38,0x54,0x54,0x54,0x58},//e
// 1002   {0x00,0x08,0x7e,0x09,0x02},//f
// 1003   {0x48,0x54,0x54,0x54,0x3c},//g
// 1004   {0x7f,0x08,0x08,0x08,0x70},//h
// 1005   {0x00,0x00,0x7a,0x00,0x00},//i
// 1006   {0x20,0x40,0x40,0x3d,0x00},//j
// 1007   {0x7f,0x20,0x28,0x44,0x00},//k
// 1008   {0x00,0x41,0x7f,0x40,0x00},//l
// 1009   {0x7c,0x04,0x38,0x04,0x7c},//m
// 1010   {0x7c,0x08,0x04,0x04,0x78},//n
// 1011   {0x38,0x44,0x44,0x44,0x38},//o
// 1012   {0x7c,0x14,0x14,0x14,0x08},//p
// 1013   {0x08,0x14,0x14,0x14,0x7c},//q
// 1014   {0x7c,0x08,0x04,0x04,0x08},//r
// 1015   {0x48,0x54,0x54,0x54,0x24},//s
// 1016   {0x04,0x04,0x3f,0x44,0x24},//t
// 1017   {0x3c,0x40,0x40,0x40,0x3c},//u
// 1018   {0x1c,0x20,0x40,0x20,0x1c},//v
// 1019   {0x3c,0x40,0x30,0x40,0x3c},//w
// 1020   {0x44,0x28,0x10,0x28,0x44},//x
// 1021   {0x04,0x48,0x30,0x08,0x04},//y
// 1022   {0x44,0x64,0x54,0x4c,0x44},//z
// 1023   {0x08,0x36,0x41,0x41,0x00},//{
// 1024   {0x00,0x00,0x77,0x00,0x00},//|
// 1025   {0x00,0x41,0x41,0x36,0x08},//}
// 1026   {0x04,0x02,0x02,0x02,0x01},//~
// 1027 };
// 1028 
// 1029 #endif
// 1030 
// 1031 
// 1032 /**************************************************************************************************
// 1033 **************************************************************************************************/
// 1034 
// 1035 
// 1036 
// 
// 1 537 bytes in segment BANKED_CODE
//    96 bytes in segment BANK_RELAYS
//   475 bytes in segment CODE_C
//     6 bytes in segment SFR_AN
//    33 bytes in segment XDATA_ROM_C
//     2 bytes in segment XDATA_Z
// 
// 2 108 bytes of CODE  memory
//    33 bytes of CONST memory
//     0 bytes of DATA  memory (+ 6 bytes shared)
//     2 bytes of XDATA memory
//
//Errors: none
//Warnings: none
